ARM GAS  C:\Users\XUCHEN~1\AppData\Local\Temp\ccacyNFd.s 			page 1


   1              		.cpu cortex-m3
   2              		.arch armv7-m
   3              		.fpu softvfp
   4              		.eabi_attribute 20, 1
   5              		.eabi_attribute 21, 1
   6              		.eabi_attribute 23, 3
   7              		.eabi_attribute 24, 1
   8              		.eabi_attribute 25, 1
   9              		.eabi_attribute 26, 1
  10              		.eabi_attribute 30, 1
  11              		.eabi_attribute 34, 1
  12              		.eabi_attribute 18, 4
  13              		.file	"button.c"
  14              		.text
  15              	.Ltext0:
  16              		.cfi_sections	.debug_frame
  17              		.file 1 "Core/Src/button.c"
  18              		.section	.text.Key_Scan,"ax",%progbits
  19              		.align	1
  20              		.global	Key_Scan
  21              		.syntax unified
  22              		.thumb
  23              		.thumb_func
  25              	Key_Scan:
  26              	.LFB65:
   1:Core/Src/button.c **** #include "button.h"
   2:Core/Src/button.c **** 
   3:Core/Src/button.c **** #define KEY1_READ()  HAL_GPIO_ReadPin(GPIOC, GPIO_PIN_0)
   4:Core/Src/button.c **** #define KEY2_READ()  HAL_GPIO_ReadPin(GPIOC, GPIO_PIN_1)
   5:Core/Src/button.c **** #define KEY3_READ()  HAL_GPIO_ReadPin(GPIOB, GPIO_PIN_5)
   6:Core/Src/button.c **** #define KEY_PRESSED  1
   7:Core/Src/button.c **** 
   8:Core/Src/button.c **** uint8_t Key_Scan(void)
   9:Core/Src/button.c **** {
  27              		.loc 1 9 1 view -0
  28              		.cfi_startproc
  29              		@ args = 0, pretend = 0, frame = 0
  30              		@ frame_needed = 0, uses_anonymous_args = 0
  31 0000 08B5     		push	{r3, lr}
  32              	.LCFI0:
  33              		.cfi_def_cfa_offset 8
  34              		.cfi_offset 3, -8
  35              		.cfi_offset 14, -4
  10:Core/Src/button.c ****     static uint8_t key_up = 1;
  36              		.loc 1 10 5 view .LVU1
  11:Core/Src/button.c ****     if(key_up && (KEY1_READ() == KEY_PRESSED || KEY2_READ() == KEY_PRESSED || KEY3_READ() == KEY_PR
  37              		.loc 1 11 5 view .LVU2
  38              		.loc 1 11 8 is_stmt 0 view .LVU3
  39 0002 284B     		ldr	r3, .L14
  40 0004 1B78     		ldrb	r3, [r3]	@ zero_extendqisi2
  41              		.loc 1 11 7 view .LVU4
  42 0006 5BB3     		cbz	r3, .L2
  43              		.loc 1 11 19 discriminator 1 view .LVU5
  44 0008 0121     		movs	r1, #1
  45 000a 2748     		ldr	r0, .L14+4
  46 000c FFF7FEFF 		bl	HAL_GPIO_ReadPin
  47              	.LVL0:
ARM GAS  C:\Users\XUCHEN~1\AppData\Local\Temp\ccacyNFd.s 			page 2


  48              		.loc 1 11 15 discriminator 2 view .LVU6
  49 0010 0128     		cmp	r0, #1
  50 0012 05D0     		beq	.L3
  51              		.loc 1 11 49 discriminator 3 view .LVU7
  52 0014 0221     		movs	r1, #2
  53 0016 2448     		ldr	r0, .L14+4
  54 0018 FFF7FEFF 		bl	HAL_GPIO_ReadPin
  55              	.LVL1:
  56              		.loc 1 11 46 discriminator 4 view .LVU8
  57 001c 0128     		cmp	r0, #1
  58 001e 19D1     		bne	.L11
  59              	.L3:
  12:Core/Src/button.c ****     {
  13:Core/Src/button.c ****         HAL_Delay(10);
  60              		.loc 1 13 9 is_stmt 1 view .LVU9
  61 0020 0A20     		movs	r0, #10
  62 0022 FFF7FEFF 		bl	HAL_Delay
  63              	.LVL2:
  14:Core/Src/button.c ****         key_up = 0;
  64              		.loc 1 14 9 view .LVU10
  65              		.loc 1 14 16 is_stmt 0 view .LVU11
  66 0026 1F4B     		ldr	r3, .L14
  67 0028 0022     		movs	r2, #0
  68 002a 1A70     		strb	r2, [r3]
  15:Core/Src/button.c ****         if(KEY1_READ() == KEY_PRESSED)     return 1;
  69              		.loc 1 15 9 is_stmt 1 view .LVU12
  70              		.loc 1 15 12 is_stmt 0 view .LVU13
  71 002c 0121     		movs	r1, #1
  72 002e 1E48     		ldr	r0, .L14+4
  73 0030 FFF7FEFF 		bl	HAL_GPIO_ReadPin
  74              	.LVL3:
  75              		.loc 1 15 11 discriminator 1 view .LVU14
  76 0034 0128     		cmp	r0, #1
  77 0036 1AD0     		beq	.L4
  16:Core/Src/button.c ****         else if(KEY2_READ() == KEY_PRESSED) return 2;
  78              		.loc 1 16 14 is_stmt 1 view .LVU15
  79              		.loc 1 16 17 is_stmt 0 view .LVU16
  80 0038 0221     		movs	r1, #2
  81 003a 1B48     		ldr	r0, .L14+4
  82 003c FFF7FEFF 		bl	HAL_GPIO_ReadPin
  83              	.LVL4:
  84              		.loc 1 16 16 discriminator 1 view .LVU17
  85 0040 0128     		cmp	r0, #1
  86 0042 28D0     		beq	.L5
  17:Core/Src/button.c ****         else if(KEY3_READ() == KEY_PRESSED) return 3;
  87              		.loc 1 17 14 is_stmt 1 view .LVU18
  88              		.loc 1 17 17 is_stmt 0 view .LVU19
  89 0044 2021     		movs	r1, #32
  90 0046 1948     		ldr	r0, .L14+8
  91 0048 FFF7FEFF 		bl	HAL_GPIO_ReadPin
  92              	.LVL5:
  93              		.loc 1 17 16 discriminator 1 view .LVU20
  94 004c 0128     		cmp	r0, #1
  95 004e 24D0     		beq	.L6
  18:Core/Src/button.c ****     }
  19:Core/Src/button.c ****     else if(KEY1_READ() != KEY_PRESSED && KEY2_READ() != KEY_PRESSED && KEY3_READ() != KEY_PRESSED)
  20:Core/Src/button.c ****     {
ARM GAS  C:\Users\XUCHEN~1\AppData\Local\Temp\ccacyNFd.s 			page 3


  21:Core/Src/button.c ****         key_up = 1;
  22:Core/Src/button.c ****     }
  23:Core/Src/button.c ****     return 0;
  96              		.loc 1 23 12 view .LVU21
  97 0050 0020     		movs	r0, #0
  98 0052 0CE0     		b	.L4
  99              	.L11:
  11:Core/Src/button.c ****     {
 100              		.loc 1 11 79 discriminator 5 view .LVU22
 101 0054 2021     		movs	r1, #32
 102 0056 1548     		ldr	r0, .L14+8
 103 0058 FFF7FEFF 		bl	HAL_GPIO_ReadPin
 104              	.LVL6:
  11:Core/Src/button.c ****     {
 105              		.loc 1 11 76 discriminator 6 view .LVU23
 106 005c 0128     		cmp	r0, #1
 107 005e DFD0     		beq	.L3
 108              	.L2:
  19:Core/Src/button.c ****     {
 109              		.loc 1 19 10 is_stmt 1 view .LVU24
  19:Core/Src/button.c ****     {
 110              		.loc 1 19 13 is_stmt 0 view .LVU25
 111 0060 0121     		movs	r1, #1
 112 0062 1148     		ldr	r0, .L14+4
 113 0064 FFF7FEFF 		bl	HAL_GPIO_ReadPin
 114              	.LVL7:
  19:Core/Src/button.c ****     {
 115              		.loc 1 19 12 discriminator 1 view .LVU26
 116 0068 0128     		cmp	r0, #1
 117 006a 01D1     		bne	.L12
 118              		.loc 1 23 12 view .LVU27
 119 006c 0020     		movs	r0, #0
 120              	.L4:
  24:Core/Src/button.c **** }...
 121              		.loc 1 24 1 view .LVU28
 122 006e 08BD     		pop	{r3, pc}
 123              	.L12:
  19:Core/Src/button.c ****     {
 124              		.loc 1 19 43 discriminator 2 view .LVU29
 125 0070 0221     		movs	r1, #2
 126 0072 0D48     		ldr	r0, .L14+4
 127 0074 FFF7FEFF 		bl	HAL_GPIO_ReadPin
 128              	.LVL8:
  19:Core/Src/button.c ****     {
 129              		.loc 1 19 40 discriminator 3 view .LVU30
 130 0078 0128     		cmp	r0, #1
 131 007a 01D1     		bne	.L13
  23:Core/Src/button.c ****     return 0;
 132              		.loc 1 23 12 view .LVU31
 133 007c 0020     		movs	r0, #0
 134 007e F6E7     		b	.L4
 135              	.L13:
  19:Core/Src/button.c ****     {
 136              		.loc 1 19 73 discriminator 4 view .LVU32
 137 0080 2021     		movs	r1, #32
 138 0082 0A48     		ldr	r0, .L14+8
 139 0084 FFF7FEFF 		bl	HAL_GPIO_ReadPin
ARM GAS  C:\Users\XUCHEN~1\AppData\Local\Temp\ccacyNFd.s 			page 4


 140              	.LVL9:
  19:Core/Src/button.c ****     {
 141              		.loc 1 19 70 discriminator 5 view .LVU33
 142 0088 0128     		cmp	r0, #1
 143 008a 08D0     		beq	.L9
  21:Core/Src/button.c ****         key_up = 1;
 144              		.loc 1 21 9 is_stmt 1 view .LVU34
  21:Core/Src/button.c ****         key_up = 1;
 145              		.loc 1 21 16 is_stmt 0 view .LVU35
 146 008c 054B     		ldr	r3, .L14
 147 008e 0122     		movs	r2, #1
 148 0090 1A70     		strb	r2, [r3]
  23:Core/Src/button.c ****     return 0;
 149              		.loc 1 23 12 view .LVU36
 150 0092 0020     		movs	r0, #0
 151 0094 EBE7     		b	.L4
 152              	.L5:
  16:Core/Src/button.c ****         else if(KEY2_READ() == KEY_PRESSED) return 2;
 153              		.loc 1 16 52 discriminator 2 view .LVU37
 154 0096 0220     		movs	r0, #2
 155 0098 E9E7     		b	.L4
 156              	.L6:
  17:Core/Src/button.c ****         else if(KEY3_READ() == KEY_PRESSED) return 3;
 157              		.loc 1 17 52 discriminator 2 view .LVU38
 158 009a 0320     		movs	r0, #3
 159 009c E7E7     		b	.L4
 160              	.L9:
  23:Core/Src/button.c ****     return 0;
 161              		.loc 1 23 12 view .LVU39
 162 009e 0020     		movs	r0, #0
 163 00a0 E5E7     		b	.L4
 164              	.L15:
 165 00a2 00BF     		.align	2
 166              	.L14:
 167 00a4 00000000 		.word	key_up.0
 168 00a8 00100140 		.word	1073811456
 169 00ac 000C0140 		.word	1073810432
 170              		.cfi_endproc
 171              	.LFE65:
 173              		.section	.data.key_up.0,"aw"
 176              	key_up.0:
 177 0000 01       		.byte	1
 178              		.text
 179              	.Letext0:
 180              		.file 2 "C:/arm-gnu-toolchain-15.2.rel1-mingw-w64-x86_64-arm-none-eabi/arm-none-eabi/include/machi
 181              		.file 3 "C:/arm-gnu-toolchain-15.2.rel1-mingw-w64-x86_64-arm-none-eabi/arm-none-eabi/include/sys/_
 182              		.file 4 "Drivers/CMSIS/Device/ST/STM32F1xx/Include/stm32f103xe.h"
 183              		.file 5 "Drivers/STM32F1xx_HAL_Driver/Inc/stm32f1xx_hal_gpio.h"
 184              		.file 6 "Drivers/STM32F1xx_HAL_Driver/Inc/stm32f1xx_hal.h"
ARM GAS  C:\Users\XUCHEN~1\AppData\Local\Temp\ccacyNFd.s 			page 5


DEFINED SYMBOLS
                            *ABS*:00000000 button.c
C:\Users\XUCHEN~1\AppData\Local\Temp\ccacyNFd.s:19     .text.Key_Scan:00000000 $t
C:\Users\XUCHEN~1\AppData\Local\Temp\ccacyNFd.s:25     .text.Key_Scan:00000000 Key_Scan
C:\Users\XUCHEN~1\AppData\Local\Temp\ccacyNFd.s:167    .text.Key_Scan:000000a4 $d
C:\Users\XUCHEN~1\AppData\Local\Temp\ccacyNFd.s:176    .data.key_up.0:00000000 key_up.0

UNDEFINED SYMBOLS
HAL_GPIO_ReadPin
HAL_Delay
