ARM GAS  C:\Users\XUCHEN~1\AppData\Local\Temp\ccIWF9s5.s 			page 1


   1              		.cpu cortex-m3
   2              		.arch armv7-m
   3              		.fpu softvfp
   4              		.eabi_attribute 20, 1
   5              		.eabi_attribute 21, 1
   6              		.eabi_attribute 23, 3
   7              		.eabi_attribute 24, 1
   8              		.eabi_attribute 25, 1
   9              		.eabi_attribute 26, 1
  10              		.eabi_attribute 30, 1
  11              		.eabi_attribute 34, 1
  12              		.eabi_attribute 18, 4
  13              		.file	"main.c"
  14              		.text
  15              	.Ltext0:
  16              		.cfi_sections	.debug_frame
  17              		.file 1 "Core/Src/main.c"
  18              		.section	.text.Arm_Done_Callback,"ax",%progbits
  19              		.align	1
  20              		.global	Arm_Done_Callback
  21              		.syntax unified
  22              		.thumb
  23              		.thumb_func
  25              	Arm_Done_Callback:
  26              	.LFB68:
   1:Core/Src/main.c **** /* USER CODE BEGIN Header */
   2:Core/Src/main.c **** /**
   3:Core/Src/main.c ****   ******************************************************************************
   4:Core/Src/main.c ****   * @file           : main.c
   5:Core/Src/main.c ****   * @brief          : Main program body
   6:Core/Src/main.c ****   ******************************************************************************
   7:Core/Src/main.c ****   * @attention
   8:Core/Src/main.c ****   *
   9:Core/Src/main.c ****   * Copyright (c) 2026 STMicroelectronics.
  10:Core/Src/main.c ****   * All rights reserved.
  11:Core/Src/main.c ****   *
  12:Core/Src/main.c ****   * This software is licensed under terms that can be found in the LICENSE file
  13:Core/Src/main.c ****   * in the root directory of this software component.
  14:Core/Src/main.c ****   * If no LICENSE file comes with this software, it is provided AS-IS.
  15:Core/Src/main.c ****   *
  16:Core/Src/main.c ****   ******************************************************************************
  17:Core/Src/main.c ****   */
  18:Core/Src/main.c **** /* USER CODE END Header */
  19:Core/Src/main.c **** /* Includes ------------------------------------------------------------------*/
  20:Core/Src/main.c **** #include "main.h"
  21:Core/Src/main.c **** #include "i2c.h"
  22:Core/Src/main.c **** #include "tim.h"
  23:Core/Src/main.c **** #include "usart.h"
  24:Core/Src/main.c **** #include "gpio.h"
  25:Core/Src/main.c **** 
  26:Core/Src/main.c **** /* Private includes ----------------------------------------------------------*/
  27:Core/Src/main.c **** /* USER CODE BEGIN Includes */
  28:Core/Src/main.c **** #include "oled.h"
  29:Core/Src/main.c **** #include "motor.h"
  30:Core/Src/main.c **** #include "track.h"
  31:Core/Src/main.c **** #include "encoder.h"
  32:Core/Src/main.c **** #include "arm.h"
ARM GAS  C:\Users\XUCHEN~1\AppData\Local\Temp\ccIWF9s5.s 			page 2


  33:Core/Src/main.c **** #include "button.h"
  34:Core/Src/main.c **** #include "uart.h"
  35:Core/Src/main.c **** #include <stdio.h>
  36:Core/Src/main.c **** #include <stdlib.h>
  37:Core/Src/main.c **** #include <string.h>
  38:Core/Src/main.c **** #include <math.h>
  39:Core/Src/main.c **** /* USER CODE END Includes */
  40:Core/Src/main.c **** 
  41:Core/Src/main.c **** /* Private typedef -----------------------------------------------------------*/
  42:Core/Src/main.c **** /* USER CODE BEGIN PTD */
  43:Core/Src/main.c **** /* USER CODE END PTD */
  44:Core/Src/main.c **** 
  45:Core/Src/main.c **** /* Private define ------------------------------------------------------------*/
  46:Core/Src/main.c **** /* USER CODE BEGIN PD */
  47:Core/Src/main.c **** // ±ŕÂëĆ÷Äż±ęÎ»ÖĂşę¶¨ŇĺŁ¨µĄÎ»ŁşmmŁ©Ł¬Çë¸ůľÝĘµĽĘłˇµŘµ÷Őű
  48:Core/Src/main.c **** #define ENC_POS_WAREHOUSE   1200    // HOME -> ˛ÖżâÇř
  49:Core/Src/main.c **** #define ENC_POS_A           2500    // HOME -> AÇřŁ¨ŔŰĽĆŁ©
  50:Core/Src/main.c **** #define ENC_POS_B           3800    // HOME -> BÇř
  51:Core/Src/main.c **** #define ENC_POS_C           5100    // HOME -> CÇř
  52:Core/Src/main.c **** 
  53:Core/Src/main.c **** #define PWM_BASE     400
  54:Core/Src/main.c **** #define PWM_BACK     350
  55:Core/Src/main.c **** #define TRACK_KP     1.2
  56:Core/Src/main.c **** #define TRACK_KI     0.01
  57:Core/Src/main.c **** #define TRACK_KD     0.3
  58:Core/Src/main.c **** /* USER CODE END PD */
  59:Core/Src/main.c **** 
  60:Core/Src/main.c **** /* Private macro -------------------------------------------------------------*/
  61:Core/Src/main.c **** /* USER CODE BEGIN PM */
  62:Core/Src/main.c **** /* USER CODE END PM */
  63:Core/Src/main.c **** 
  64:Core/Src/main.c **** /* Private variables ---------------------------------------------------------*/
  65:Core/Src/main.c **** 
  66:Core/Src/main.c **** /* USER CODE BEGIN PV */
  67:Core/Src/main.c **** // ==================== ×´Ě¬»ú ====================
  68:Core/Src/main.c **** typedef enum {
  69:Core/Src/main.c ****     STATE_IDLE,
  70:Core/Src/main.c ****     STATE_ORDER_SETTING,
  71:Core/Src/main.c ****     STATE_READY,
  72:Core/Src/main.c ****     STATE_GO_WAREHOUSE,
  73:Core/Src/main.c ****     STATE_ALIGN_WAREHOUSE,
  74:Core/Src/main.c ****     STATE_PICK_GOODS,
  75:Core/Src/main.c ****     STATE_GO_UNLOAD,
  76:Core/Src/main.c ****     STATE_ALIGN_UNLOAD,
  77:Core/Src/main.c ****     STATE_DROP_GOODS,
  78:Core/Src/main.c ****     STATE_RETURN_HOME,
  79:Core/Src/main.c ****     STATE_FINISH
  80:Core/Src/main.c **** } SystemState;
  81:Core/Src/main.c **** 
  82:Core/Src/main.c **** //ĐˇłµĎŕąŘ
  83:Core/Src/main.c **** SystemState g_state = STATE_IDLE;   // łőĘĽĐˇłµ×´Ě¬±äÁż
  84:Core/Src/main.c **** uint8_t g_car_dir = 0;              // ĐˇłµĐĐ˝ř×´Ě¬Łş0:Ç°˝řŁ¬1:şóÍË
  85:Core/Src/main.c **** int32_t g_target_enc = 0;           // µ±Ç°Äż±ę±ŕÂëĆ÷ľŕŔë
  86:Core/Src/main.c **** 
  87:Core/Src/main.c **** //»úĐµ±ŰĎŕąŘ
  88:Core/Src/main.c **** uint8_t g_arm_done_event = 0;       // »úĐµ±Ű¶Ż×÷ÍęłÉĘÂĽţ
  89:Core/Src/main.c **** uint8_t g_vision_done_event = 0;    // ĘÓľő¶Ô×ĽÍęłÉĘÂĽţ
ARM GAS  C:\Users\XUCHEN~1\AppData\Local\Temp\ccIWF9s5.s 			page 3


  90:Core/Src/main.c **** 
  91:Core/Src/main.c **** //ÎďżéĎŕąŘ
  92:Core/Src/main.c **** char g_unload_order[4] = "ABC";     // Ä¬ČĎËłĐň
  93:Core/Src/main.c **** uint8_t g_pick_index = 0;           // ×ĄČˇË÷Ňý 0:A,1:B,2:C
  94:Core/Src/main.c **** uint8_t g_order_index = 0;          // µ±Ç°Đ¶»őË÷ŇýĐňşĹ
  95:Core/Src/main.c **** uint8_t g_unload_count = 0;         // ŇŃĐ¶»őÎďĽĆĘý
  96:Core/Src/main.c **** 
  97:Core/Src/main.c **** 
  98:Core/Src/main.c **** 
  99:Core/Src/main.c **** /* USER CODE END PV */
 100:Core/Src/main.c **** 
 101:Core/Src/main.c **** /* Private function prototypes -----------------------------------------------*/
 102:Core/Src/main.c **** void SystemClock_Config(void);
 103:Core/Src/main.c **** /* USER CODE BEGIN PFP */
 104:Core/Src/main.c **** void State_Machine(void);
 105:Core/Src/main.c **** void Start_Order_Setting(void);
 106:Core/Src/main.c **** void Execute_LineTracking(int32_t target_enc, uint8_t direction);
 107:Core/Src/main.c **** uint8_t Wait_AlignComplete(uint32_t timeout_ms);
 108:Core/Src/main.c **** void Beep(uint16_t ms);
 109:Core/Src/main.c **** void LED_Blink(uint8_t times);
 110:Core/Src/main.c **** /* USER CODE END PFP */
 111:Core/Src/main.c **** 
 112:Core/Src/main.c **** /* Private user code ---------------------------------------------------------*/
 113:Core/Src/main.c **** /* USER CODE BEGIN 0 */
 114:Core/Src/main.c **** void Arm_Done_Callback(void)
 115:Core/Src/main.c **** {
  27              		.loc 1 115 1 view -0
  28              		.cfi_startproc
  29              		@ args = 0, pretend = 0, frame = 0
  30              		@ frame_needed = 0, uses_anonymous_args = 0
  31              		@ link register save eliminated.
 116:Core/Src/main.c ****     g_arm_done_event = 1;
  32              		.loc 1 116 5 view .LVU1
  33              		.loc 1 116 22 is_stmt 0 view .LVU2
  34 0000 014B     		ldr	r3, .L2
  35 0002 0122     		movs	r2, #1
  36 0004 1A70     		strb	r2, [r3]
 117:Core/Src/main.c **** }
  37              		.loc 1 117 1 view .LVU3
  38 0006 7047     		bx	lr
  39              	.L3:
  40              		.align	2
  41              	.L2:
  42 0008 00000000 		.word	g_arm_done_event
  43              		.cfi_endproc
  44              	.LFE68:
  46              		.section	.rodata.Start_Order_Setting.str1.4,"aMS",%progbits,1
  47              		.align	2
  48              	.LC0:
  49 0000 4F726465 		.ascii	"Order Saved:\000"
  49      72205361 
  49      7665643A 
  49      00
  50              		.section	.text.Start_Order_Setting,"ax",%progbits
  51              		.align	1
  52              		.global	Start_Order_Setting
  53              		.syntax unified
ARM GAS  C:\Users\XUCHEN~1\AppData\Local\Temp\ccIWF9s5.s 			page 4


  54              		.thumb
  55              		.thumb_func
  57              	Start_Order_Setting:
  58              	.LFB72:
 118:Core/Src/main.c **** /* USER CODE END 0 */
 119:Core/Src/main.c **** 
 120:Core/Src/main.c **** /**
 121:Core/Src/main.c ****   * @brief  The application entry point.
 122:Core/Src/main.c ****   * @retval int
 123:Core/Src/main.c ****   */
 124:Core/Src/main.c **** int main(void)
 125:Core/Src/main.c **** {
 126:Core/Src/main.c ****   /* USER CODE BEGIN 1 */
 127:Core/Src/main.c ****   /* USER CODE END 1 */
 128:Core/Src/main.c **** 
 129:Core/Src/main.c ****   /* MCU Configuration--------------------------------------------------------*/
 130:Core/Src/main.c ****   HAL_Init();
 131:Core/Src/main.c ****   SystemClock_Config();
 132:Core/Src/main.c **** 
 133:Core/Src/main.c ****   MX_GPIO_Init();
 134:Core/Src/main.c ****   MX_I2C1_Init();
 135:Core/Src/main.c ****   MX_I2C2_Init();
 136:Core/Src/main.c ****   MX_TIM1_Init();
 137:Core/Src/main.c ****   MX_TIM2_Init();
 138:Core/Src/main.c ****   MX_TIM3_Init();
 139:Core/Src/main.c ****   MX_TIM4_Init();
 140:Core/Src/main.c ****   MX_TIM8_Init();
 141:Core/Src/main.c ****   MX_USART1_UART_Init();
 142:Core/Src/main.c ****   MX_USART2_UART_Init();
 143:Core/Src/main.c ****   MX_USART3_UART_Init();
 144:Core/Src/main.c **** 
 145:Core/Src/main.c ****   /* USER CODE BEGIN 2 */
 146:Core/Src/main.c ****   HAL_TIM_PWM_Start(&htim8, TIM_CHANNEL_1);
 147:Core/Src/main.c ****   HAL_TIM_PWM_Start(&htim8, TIM_CHANNEL_2);
 148:Core/Src/main.c ****   Encoder_Init();
 149:Core/Src/main.c ****   OLED_Init();
 150:Core/Src/main.c ****   OLED_Clear();
 151:Core/Src/main.c ****   Arm_Init();
 152:Core/Src/main.c ****   Arm_SetDoneCallback(Arm_Done_Callback);
 153:Core/Src/main.c ****   UART_Init();            // żŞĆô´®żÚ˝ÓĘŐÖĐ¶Ď
 154:Core/Src/main.c **** 
 155:Core/Src/main.c ****   OLED_ShowString(0, 0, "System Ready!");
 156:Core/Src/main.c ****   /* USER CODE END 2 */
 157:Core/Src/main.c **** 
 158:Core/Src/main.c ****   /* Infinite loop */
 159:Core/Src/main.c ****   /* USER CODE BEGIN WHILE */
 160:Core/Src/main.c ****   while (1)
 161:Core/Src/main.c ****   {
 162:Core/Src/main.c ****     State_Machine();       // ŇŔČ»ÓÉ×´Ě¬»úżŘÖĆ
 163:Core/Src/main.c ****     HAL_Delay(10);
 164:Core/Src/main.c ****     /* USER CODE END WHILE */
 165:Core/Src/main.c **** 
 166:Core/Src/main.c ****     /* USER CODE BEGIN 3 */
 167:Core/Src/main.c ****   }
 168:Core/Src/main.c ****   /* USER CODE END 3 */
 169:Core/Src/main.c **** }
 170:Core/Src/main.c **** 
ARM GAS  C:\Users\XUCHEN~1\AppData\Local\Temp\ccIWF9s5.s 			page 5


 171:Core/Src/main.c **** /**
 172:Core/Src/main.c ****   * @brief System Clock Configuration
 173:Core/Src/main.c ****   * @retval None
 174:Core/Src/main.c ****   */
 175:Core/Src/main.c **** void SystemClock_Config(void)
 176:Core/Src/main.c **** {
 177:Core/Src/main.c ****   RCC_OscInitTypeDef RCC_OscInitStruct = {0};
 178:Core/Src/main.c ****   RCC_ClkInitTypeDef RCC_ClkInitStruct = {0};
 179:Core/Src/main.c **** 
 180:Core/Src/main.c ****   RCC_OscInitStruct.OscillatorType = RCC_OSCILLATORTYPE_HSE;
 181:Core/Src/main.c ****   RCC_OscInitStruct.HSEState = RCC_HSE_ON;
 182:Core/Src/main.c ****   RCC_OscInitStruct.HSEPredivValue = RCC_HSE_PREDIV_DIV1;
 183:Core/Src/main.c ****   RCC_OscInitStruct.HSIState = RCC_HSI_ON;
 184:Core/Src/main.c ****   RCC_OscInitStruct.PLL.PLLState = RCC_PLL_ON;
 185:Core/Src/main.c ****   RCC_OscInitStruct.PLL.PLLSource = RCC_PLLSOURCE_HSE;
 186:Core/Src/main.c ****   RCC_OscInitStruct.PLL.PLLMUL = RCC_PLL_MUL9;
 187:Core/Src/main.c ****   if (HAL_RCC_OscConfig(&RCC_OscInitStruct) != HAL_OK)
 188:Core/Src/main.c ****   {
 189:Core/Src/main.c ****     Error_Handler();
 190:Core/Src/main.c ****   }
 191:Core/Src/main.c **** 
 192:Core/Src/main.c ****   RCC_ClkInitStruct.ClockType = RCC_CLOCKTYPE_HCLK|RCC_CLOCKTYPE_SYSCLK
 193:Core/Src/main.c ****                               |RCC_CLOCKTYPE_PCLK1|RCC_CLOCKTYPE_PCLK2;
 194:Core/Src/main.c ****   RCC_ClkInitStruct.SYSCLKSource = RCC_SYSCLKSOURCE_PLLCLK;
 195:Core/Src/main.c ****   RCC_ClkInitStruct.AHBCLKDivider = RCC_SYSCLK_DIV1;
 196:Core/Src/main.c ****   RCC_ClkInitStruct.APB1CLKDivider = RCC_HCLK_DIV2;
 197:Core/Src/main.c ****   RCC_ClkInitStruct.APB2CLKDivider = RCC_HCLK_DIV1;
 198:Core/Src/main.c **** 
 199:Core/Src/main.c ****   if (HAL_RCC_ClockConfig(&RCC_ClkInitStruct, FLASH_LATENCY_2) != HAL_OK)
 200:Core/Src/main.c ****   {
 201:Core/Src/main.c ****     Error_Handler();
 202:Core/Src/main.c ****   }
 203:Core/Src/main.c **** }
 204:Core/Src/main.c **** 
 205:Core/Src/main.c **** /* USER CODE BEGIN 4 */
 206:Core/Src/main.c **** 
 207:Core/Src/main.c **** // ====================== ×´Ě¬»úĘµĎÖ ======================
 208:Core/Src/main.c **** void State_Machine(void)
 209:Core/Src/main.c **** {
 210:Core/Src/main.c ****     uint8_t key;
 211:Core/Src/main.c ****     int32_t cur_dist;
 212:Core/Src/main.c **** 
 213:Core/Src/main.c ****     switch(g_state)
 214:Core/Src/main.c ****     {
 215:Core/Src/main.c ****         case STATE_IDLE:
 216:Core/Src/main.c ****             OLED_Show_State("Press KEY1 start");
 217:Core/Src/main.c ****             key = Key_Scan();
 218:Core/Src/main.c ****             if(key == 1)
 219:Core/Src/main.c ****             {
 220:Core/Src/main.c ****                 Start_Order_Setting();
 221:Core/Src/main.c ****             }
 222:Core/Src/main.c ****             break;
 223:Core/Src/main.c **** 
 224:Core/Src/main.c ****         case STATE_ORDER_SETTING:
 225:Core/Src/main.c ****             // ´Ë×´Ě¬ÔÚStart_Order_SettingÖĐ´¦ŔíŁ¬´¦ŔíÍęÖ±˝Ó×Ô¶ŻĚř×Ş
 226:Core/Src/main.c ****             break;
 227:Core/Src/main.c **** 
ARM GAS  C:\Users\XUCHEN~1\AppData\Local\Temp\ccIWF9s5.s 			page 6


 228:Core/Src/main.c ****         case STATE_READY:
 229:Core/Src/main.c ****             OLED_Show_State("Ready! Press KEY1");
 230:Core/Src/main.c ****             key = Key_Scan();
 231:Core/Src/main.c ****             if(key == 1)
 232:Core/Src/main.c ****             {
 233:Core/Src/main.c ****                 g_pick_index = 0;
 234:Core/Src/main.c ****                 g_unload_count = 0;
 235:Core/Src/main.c ****                 g_order_index = 0;
 236:Core/Src/main.c ****                 Encoder_ResetDistance();
 237:Core/Src/main.c ****                 g_target_enc = ENC_POS_WAREHOUSE;
 238:Core/Src/main.c ****                 g_state = STATE_GO_WAREHOUSE;
 239:Core/Src/main.c ****                 OLED_Clear();
 240:Core/Src/main.c ****             }
 241:Core/Src/main.c ****             break;
 242:Core/Src/main.c **** 
 243:Core/Src/main.c ****         case STATE_GO_WAREHOUSE:
 244:Core/Src/main.c ****             Execute_LineTracking(g_target_enc, 0);  // Ç°˝ř
 245:Core/Src/main.c ****             if(Encoder_GetDistance() >= g_target_enc)
 246:Core/Src/main.c ****             {
 247:Core/Src/main.c ****                 Motor_Stop();
 248:Core/Src/main.c ****                 g_state = STATE_ALIGN_WAREHOUSE;
 249:Core/Src/main.c ****                 OLED_Clear();
 250:Core/Src/main.c ****             }
 251:Core/Src/main.c ****             break;
 252:Core/Src/main.c **** 
 253:Core/Src/main.c ****         case STATE_ALIGN_WAREHOUSE:
 254:Core/Src/main.c ****             OLED_Show_State("Aligning...");
 255:Core/Src/main.c ****             OpenMV_SetMode(3);
 256:Core/Src/main.c ****             Arm_MoveToPoint(ARM_POINT_ALIGN);
 257:Core/Src/main.c ****             if(Wait_AlignComplete(5000))
 258:Core/Src/main.c ****             {
 259:Core/Src/main.c ****                 OLED_Show_AlignResult(1);
 260:Core/Src/main.c ****                 Arm_MoveToPoint(ARM_POINT_RESET);
 261:Core/Src/main.c ****                 g_state = STATE_PICK_GOODS;
 262:Core/Src/main.c ****                 g_arm_done_event = 0;
 263:Core/Src/main.c ****                 Arm_ClearDoneFlag();
 264:Core/Src/main.c ****             }
 265:Core/Src/main.c ****             else
 266:Core/Src/main.c ****             {
 267:Core/Src/main.c ****                 OLED_Show_AlignResult(0);
 268:Core/Src/main.c ****                 // ł¬Ę±Ň˛ĽĚĐřŁ¬żÉĽÓÉůąâ±¨ľŻ
 269:Core/Src/main.c ****                 g_state = STATE_PICK_GOODS;
 270:Core/Src/main.c ****             }
 271:Core/Src/main.c ****             break;
 272:Core/Src/main.c **** 
 273:Core/Src/main.c ****         case STATE_PICK_GOODS:
 274:Core/Src/main.c ****             if(g_pick_index < 3)
 275:Core/Src/main.c ****             {
 276:Core/Src/main.c ****                 char buf[16];
 277:Core/Src/main.c ****                 sprintf(buf, "Pick %c", 'A' + g_pick_index);
 278:Core/Src/main.c ****                 OLED_Show_State(buf);
 279:Core/Src/main.c ****                 if(!Arm_IsDone())
 280:Core/Src/main.c ****                 {
 281:Core/Src/main.c ****                     Arm_PickSequence(g_pick_index);
 282:Core/Src/main.c ****                 }
 283:Core/Src/main.c ****                 if(g_arm_done_event)
 284:Core/Src/main.c ****                 {
ARM GAS  C:\Users\XUCHEN~1\AppData\Local\Temp\ccIWF9s5.s 			page 7


 285:Core/Src/main.c ****                     g_arm_done_event = 0;
 286:Core/Src/main.c ****                     Arm_ClearDoneFlag();
 287:Core/Src/main.c ****                     g_pick_index++;
 288:Core/Src/main.c ****                     Beep(100);
 289:Core/Src/main.c ****                     LED_Blink(1);
 290:Core/Src/main.c ****                 }
 291:Core/Src/main.c ****             }
 292:Core/Src/main.c ****             else
 293:Core/Src/main.c ****             {
 294:Core/Src/main.c ****                 // ×ĄČˇÍę±ĎŁ¬×Ľ±¸Ç°ÍůµÚŇ»¸öĐ¶»őÇř
 295:Core/Src/main.c ****                 g_unload_count = 0;
 296:Core/Src/main.c ****                 g_order_index = 0;
 297:Core/Src/main.c ****                 char target_char = g_unload_order[g_order_index];
 298:Core/Src/main.c ****                 if(target_char == 'A')      g_target_enc = ENC_POS_A;
 299:Core/Src/main.c ****                 else if(target_char == 'B') g_target_enc = ENC_POS_B;
 300:Core/Src/main.c ****                 else                        g_target_enc = ENC_POS_C;
 301:Core/Src/main.c ****                 g_state = STATE_GO_UNLOAD;
 302:Core/Src/main.c ****                 OLED_Clear();
 303:Core/Src/main.c ****             }
 304:Core/Src/main.c ****             break;
 305:Core/Src/main.c **** 
 306:Core/Src/main.c ****         case STATE_GO_UNLOAD:
 307:Core/Src/main.c ****             cur_dist = Encoder_GetDistance();
 308:Core/Src/main.c ****             uint8_t dir = (g_target_enc > cur_dist) ? 0 : 1;
 309:Core/Src/main.c ****             Execute_LineTracking(g_target_enc, dir);
 310:Core/Src/main.c ****             if((dir == 0 && cur_dist >= g_target_enc) || (dir == 1 && cur_dist <= g_target_enc))
 311:Core/Src/main.c ****             {
 312:Core/Src/main.c ****                 Motor_Stop();
 313:Core/Src/main.c ****                 g_state = STATE_ALIGN_UNLOAD;
 314:Core/Src/main.c ****                 OLED_Clear();
 315:Core/Src/main.c ****             }
 316:Core/Src/main.c ****             break;
 317:Core/Src/main.c **** 
 318:Core/Src/main.c ****         case STATE_ALIGN_UNLOAD:
 319:Core/Src/main.c ****             OLED_Show_State("Align Unload");
 320:Core/Src/main.c ****             OpenMV_SetMode(3);
 321:Core/Src/main.c ****             Arm_MoveToPoint(ARM_POINT_ALIGN);
 322:Core/Src/main.c ****             if(Wait_AlignComplete(5000))
 323:Core/Src/main.c ****             {
 324:Core/Src/main.c ****                 OLED_Show_AlignResult(1);
 325:Core/Src/main.c ****                 Arm_MoveToPoint(ARM_POINT_RESET);
 326:Core/Src/main.c ****                 g_state = STATE_DROP_GOODS;
 327:Core/Src/main.c ****                 g_arm_done_event = 0;
 328:Core/Src/main.c ****                 Arm_ClearDoneFlag();
 329:Core/Src/main.c ****             }
 330:Core/Src/main.c ****             else
 331:Core/Src/main.c ****             {
 332:Core/Src/main.c ****                 g_state = STATE_DROP_GOODS;
 333:Core/Src/main.c ****             }
 334:Core/Src/main.c ****             break;
 335:Core/Src/main.c **** 
 336:Core/Src/main.c ****         case STATE_DROP_GOODS:
 337:Core/Src/main.c ****             {
 338:Core/Src/main.c ****                 char buf[16];
 339:Core/Src/main.c ****                 sprintf(buf, "Drop %c", g_unload_order[g_order_index]);
 340:Core/Src/main.c ****                 OLED_Show_State(buf);
 341:Core/Src/main.c ****                 if(!Arm_IsDone())
ARM GAS  C:\Users\XUCHEN~1\AppData\Local\Temp\ccIWF9s5.s 			page 8


 342:Core/Src/main.c ****                 {
 343:Core/Src/main.c ****                     Arm_DropSequence();
 344:Core/Src/main.c ****                 }
 345:Core/Src/main.c ****                 if(g_arm_done_event)
 346:Core/Src/main.c ****                 {
 347:Core/Src/main.c ****                     g_arm_done_event = 0;
 348:Core/Src/main.c ****                     Arm_ClearDoneFlag();
 349:Core/Src/main.c ****                     Beep(200);
 350:Core/Src/main.c ****                     LED_Blink(2);
 351:Core/Src/main.c ****                     g_order_index++;
 352:Core/Src/main.c ****                     g_unload_count++;
 353:Core/Src/main.c ****                     if(g_unload_count < 3)
 354:Core/Src/main.c ****                     {
 355:Core/Src/main.c ****                         char next = g_unload_order[g_order_index];
 356:Core/Src/main.c ****                         if(next == 'A')      g_target_enc = ENC_POS_A;
 357:Core/Src/main.c ****                         else if(next == 'B') g_target_enc = ENC_POS_B;
 358:Core/Src/main.c ****                         else                 g_target_enc = ENC_POS_C;
 359:Core/Src/main.c ****                         g_state = STATE_GO_UNLOAD;
 360:Core/Src/main.c ****                     }
 361:Core/Src/main.c ****                     else
 362:Core/Src/main.c ****                     {
 363:Core/Src/main.c ****                         g_target_enc = 0;   // ·µ»ŘHOME
 364:Core/Src/main.c ****                         g_state = STATE_RETURN_HOME;
 365:Core/Src/main.c ****                     }
 366:Core/Src/main.c ****                     OLED_Clear();
 367:Core/Src/main.c ****                 }
 368:Core/Src/main.c ****             }
 369:Core/Src/main.c ****             break;
 370:Core/Src/main.c **** 
 371:Core/Src/main.c ****         case STATE_RETURN_HOME:
 372:Core/Src/main.c ****             cur_dist = Encoder_GetDistance();
 373:Core/Src/main.c ****             dir = (0 > cur_dist) ? 0 : 1;
 374:Core/Src/main.c ****             Execute_LineTracking(0, dir);
 375:Core/Src/main.c ****             if((dir == 0 && cur_dist >= 0) || (dir == 1 && cur_dist <= 0))
 376:Core/Src/main.c ****             {
 377:Core/Src/main.c ****                 Motor_Stop();
 378:Core/Src/main.c ****                 g_state = STATE_FINISH;
 379:Core/Src/main.c ****             }
 380:Core/Src/main.c ****             break;
 381:Core/Src/main.c **** 
 382:Core/Src/main.c ****         case STATE_FINISH:
 383:Core/Src/main.c ****             OLED_Show_State("Task Finish!");
 384:Core/Src/main.c ****             Beep(500);
 385:Core/Src/main.c ****             HAL_Delay(2000);
 386:Core/Src/main.c ****             g_state = STATE_IDLE;
 387:Core/Src/main.c ****             OLED_Clear();
 388:Core/Src/main.c ****             break;
 389:Core/Src/main.c ****     }
 390:Core/Src/main.c **** }
 391:Core/Src/main.c **** 
 392:Core/Src/main.c **** /* ËłĐňÉčÖĂşŻĘýŁ¨×čČűĘ˝Ł¬µ«˝öÔÚÉčÖĂĘ±ÔËĐĐŁ¬Ňň´Ë˛»Ó°ĎěČÎÎńÖ´ĐĐŁ© */
 393:Core/Src/main.c **** void Start_Order_Setting(void)
 394:Core/Src/main.c **** {
  59              		.loc 1 394 1 is_stmt 1 view -0
  60              		.cfi_startproc
  61              		@ args = 0, pretend = 0, frame = 8
  62              		@ frame_needed = 0, uses_anonymous_args = 0
ARM GAS  C:\Users\XUCHEN~1\AppData\Local\Temp\ccIWF9s5.s 			page 9


  63 0000 30B5     		push	{r4, r5, lr}
  64              	.LCFI0:
  65              		.cfi_def_cfa_offset 12
  66              		.cfi_offset 4, -12
  67              		.cfi_offset 5, -8
  68              		.cfi_offset 14, -4
  69 0002 83B0     		sub	sp, sp, #12
  70              	.LCFI1:
  71              		.cfi_def_cfa_offset 24
 395:Core/Src/main.c ****     char order[4] = "   ";
  72              		.loc 1 395 5 view .LVU5
  73              		.loc 1 395 10 is_stmt 0 view .LVU6
  74 0004 234B     		ldr	r3, .L14
  75 0006 0193     		str	r3, [sp, #4]
 396:Core/Src/main.c ****     uint8_t idx = 0;
  76              		.loc 1 396 5 is_stmt 1 view .LVU7
  77              	.LVL0:
 397:Core/Src/main.c ****     uint8_t key;
  78              		.loc 1 397 5 view .LVU8
 398:Core/Src/main.c ****     OLED_Clear();
  79              		.loc 1 398 5 view .LVU9
  80 0008 FFF7FEFF 		bl	OLED_Clear
  81              	.LVL1:
 399:Core/Src/main.c ****     OLED_Show_Order_Setting(order, idx);
  82              		.loc 1 399 5 view .LVU10
  83 000c 0021     		movs	r1, #0
  84 000e 01A8     		add	r0, sp, #4
  85 0010 FFF7FEFF 		bl	OLED_Show_Order_Setting
  86              	.LVL2:
 400:Core/Src/main.c ****     while(idx < 3)
  87              		.loc 1 400 5 view .LVU11
 396:Core/Src/main.c ****     uint8_t key;
  88              		.loc 1 396 13 is_stmt 0 view .LVU12
  89 0014 0024     		movs	r4, #0
  90              		.loc 1 400 10 view .LVU13
  91 0016 14E0     		b	.L5
  92              	.LVL3:
  93              	.L13:
 401:Core/Src/main.c ****     {
 402:Core/Src/main.c ****         key = Key_Scan();
 403:Core/Src/main.c ****         if(key)
 404:Core/Src/main.c ****         {
 405:Core/Src/main.c ****             order[idx] = (key == 1) ? 'A' : (key == 2) ? 'B' : 'C';
  94              		.loc 1 405 24 discriminator 3 view .LVU14
  95 0018 4222     		movs	r2, #66
  96 001a 00E0     		b	.L7
  97              	.L9:
  98              		.loc 1 405 24 discriminator 2 view .LVU15
  99 001c 4122     		movs	r2, #65
 100              	.L7:
 101              		.loc 1 405 24 discriminator 5 view .LVU16
 102 001e 04F10803 		add	r3, r4, #8
 103 0022 6B44     		add	r3, sp, r3
 104 0024 03F8042C 		strb	r2, [r3, #-4]
 406:Core/Src/main.c ****             OLED_Show_Order_Setting(order, idx);
 105              		.loc 1 406 13 is_stmt 1 view .LVU17
 106 0028 2146     		mov	r1, r4
ARM GAS  C:\Users\XUCHEN~1\AppData\Local\Temp\ccIWF9s5.s 			page 10


 107 002a 01A8     		add	r0, sp, #4
 108              	.LVL4:
 109              		.loc 1 406 13 is_stmt 0 view .LVU18
 110 002c FFF7FEFF 		bl	OLED_Show_Order_Setting
 111              	.LVL5:
 407:Core/Src/main.c ****             idx++;
 112              		.loc 1 407 13 is_stmt 1 view .LVU19
 113              		.loc 1 407 16 is_stmt 0 view .LVU20
 114 0030 0134     		adds	r4, r4, #1
 115              	.LVL6:
 116              		.loc 1 407 16 view .LVU21
 117 0032 E4B2     		uxtb	r4, r4
 118              	.LVL7:
 408:Core/Src/main.c ****             HAL_Delay(300);
 119              		.loc 1 408 13 is_stmt 1 view .LVU22
 120 0034 4FF49670 		mov	r0, #300
 121 0038 FFF7FEFF 		bl	HAL_Delay
 122              	.LVL8:
 123              	.L6:
 409:Core/Src/main.c ****         }
 410:Core/Src/main.c ****         HAL_Delay(10);
 124              		.loc 1 410 9 view .LVU23
 125 003c 0A20     		movs	r0, #10
 126 003e FFF7FEFF 		bl	HAL_Delay
 127              	.LVL9:
 128              	.L5:
 400:Core/Src/main.c ****     {
 129              		.loc 1 400 15 view .LVU24
 130 0042 022C     		cmp	r4, #2
 131 0044 09D8     		bhi	.L12
 402:Core/Src/main.c ****         if(key)
 132              		.loc 1 402 9 view .LVU25
 402:Core/Src/main.c ****         if(key)
 133              		.loc 1 402 15 is_stmt 0 view .LVU26
 134 0046 FFF7FEFF 		bl	Key_Scan
 135              	.LVL10:
 403:Core/Src/main.c ****         {
 136              		.loc 1 403 9 is_stmt 1 view .LVU27
 403:Core/Src/main.c ****         {
 137              		.loc 1 403 11 is_stmt 0 view .LVU28
 138 004a 0028     		cmp	r0, #0
 139 004c F6D0     		beq	.L6
 405:Core/Src/main.c ****             OLED_Show_Order_Setting(order, idx);
 140              		.loc 1 405 13 is_stmt 1 view .LVU29
 405:Core/Src/main.c ****             OLED_Show_Order_Setting(order, idx);
 141              		.loc 1 405 24 is_stmt 0 view .LVU30
 142 004e 0128     		cmp	r0, #1
 143 0050 E4D0     		beq	.L9
 405:Core/Src/main.c ****             OLED_Show_Order_Setting(order, idx);
 144              		.loc 1 405 24 discriminator 1 view .LVU31
 145 0052 0228     		cmp	r0, #2
 146 0054 E0D0     		beq	.L13
 405:Core/Src/main.c ****             OLED_Show_Order_Setting(order, idx);
 147              		.loc 1 405 24 discriminator 4 view .LVU32
 148 0056 4322     		movs	r2, #67
 149 0058 E1E7     		b	.L7
 150              	.LVL11:
ARM GAS  C:\Users\XUCHEN~1\AppData\Local\Temp\ccIWF9s5.s 			page 11


 151              	.L12:
 411:Core/Src/main.c ****     }
 412:Core/Src/main.c ****     order[3] = '\0';
 152              		.loc 1 412 5 is_stmt 1 view .LVU33
 153              		.loc 1 412 14 is_stmt 0 view .LVU34
 154 005a 0024     		movs	r4, #0
 155              	.LVL12:
 156              		.loc 1 412 14 view .LVU35
 157 005c 8DF80740 		strb	r4, [sp, #7]
 413:Core/Src/main.c ****     strcpy(g_unload_order, order);
 158              		.loc 1 413 5 is_stmt 1 view .LVU36
 159 0060 01AD     		add	r5, sp, #4
 160 0062 2946     		mov	r1, r5
 161 0064 0C48     		ldr	r0, .L14+4
 162 0066 FFF7FEFF 		bl	strcpy
 163              	.LVL13:
 414:Core/Src/main.c ****     OLED_Clear();
 164              		.loc 1 414 5 view .LVU37
 165 006a FFF7FEFF 		bl	OLED_Clear
 166              	.LVL14:
 415:Core/Src/main.c ****     OLED_ShowString(0, 0, "Order Saved:");
 167              		.loc 1 415 5 view .LVU38
 168 006e 0B4A     		ldr	r2, .L14+8
 169 0070 2146     		mov	r1, r4
 170 0072 2046     		mov	r0, r4
 171 0074 FFF7FEFF 		bl	OLED_ShowString
 172              	.LVL15:
 416:Core/Src/main.c ****     OLED_ShowString(0, 1, order);
 173              		.loc 1 416 5 view .LVU39
 174 0078 2A46     		mov	r2, r5
 175 007a 0121     		movs	r1, #1
 176 007c 2046     		mov	r0, r4
 177 007e FFF7FEFF 		bl	OLED_ShowString
 178              	.LVL16:
 417:Core/Src/main.c ****     HAL_Delay(1500);
 179              		.loc 1 417 5 view .LVU40
 180 0082 40F2DC50 		movw	r0, #1500
 181 0086 FFF7FEFF 		bl	HAL_Delay
 182              	.LVL17:
 418:Core/Src/main.c ****     g_state = STATE_READY;
 183              		.loc 1 418 5 view .LVU41
 184              		.loc 1 418 13 is_stmt 0 view .LVU42
 185 008a 054B     		ldr	r3, .L14+12
 186 008c 0222     		movs	r2, #2
 187 008e 1A70     		strb	r2, [r3]
 419:Core/Src/main.c **** }
 188              		.loc 1 419 1 view .LVU43
 189 0090 03B0     		add	sp, sp, #12
 190              	.LCFI2:
 191              		.cfi_def_cfa_offset 12
 192              		@ sp needed
 193 0092 30BD     		pop	{r4, r5, pc}
 194              	.L15:
 195              		.align	2
 196              	.L14:
 197 0094 20202000 		.word	2105376
 198 0098 00000000 		.word	g_unload_order
ARM GAS  C:\Users\XUCHEN~1\AppData\Local\Temp\ccIWF9s5.s 			page 12


 199 009c 00000000 		.word	.LC0
 200 00a0 00000000 		.word	g_state
 201              		.cfi_endproc
 202              	.LFE72:
 204              		.section	.text.Execute_LineTracking,"ax",%progbits
 205              		.align	1
 206              		.global	Execute_LineTracking
 207              		.syntax unified
 208              		.thumb
 209              		.thumb_func
 211              	Execute_LineTracking:
 212              	.LVL18:
 213              	.LFB73:
 420:Core/Src/main.c **** 
 421:Core/Src/main.c **** /* Ń˛ĎßÖ´ĐĐşŻĘýŁ¨·Ç×čČűŁ¬Ăż´Îµ÷ÓĂÖ»Ö´ĐĐŇ»´ÎPIDĽĆËăÓëµç»úĘäłöŁ© */
 422:Core/Src/main.c **** void Execute_LineTracking(int32_t target_enc, uint8_t direction)
 423:Core/Src/main.c **** {
 214              		.loc 1 423 1 is_stmt 1 view -0
 215              		.cfi_startproc
 216              		@ args = 0, pretend = 0, frame = 0
 217              		@ frame_needed = 0, uses_anonymous_args = 0
 218              		.loc 1 423 1 is_stmt 0 view .LVU45
 219 0000 F8B5     		push	{r3, r4, r5, r6, r7, lr}
 220              	.LCFI3:
 221              		.cfi_def_cfa_offset 24
 222              		.cfi_offset 3, -24
 223              		.cfi_offset 4, -20
 224              		.cfi_offset 5, -16
 225              		.cfi_offset 6, -12
 226              		.cfi_offset 7, -8
 227              		.cfi_offset 14, -4
 228 0002 0D46     		mov	r5, r1
 424:Core/Src/main.c ****     Track_Sensor_Read();
 229              		.loc 1 424 5 is_stmt 1 view .LVU46
 230 0004 FFF7FEFF 		bl	Track_Sensor_Read
 231              	.LVL19:
 425:Core/Src/main.c ****     Track_PID_Calc(TRACK_KP, TRACK_KI, TRACK_KD);
 232              		.loc 1 425 5 view .LVU47
 233 0008 1F4A     		ldr	r2, .L28
 234 000a 2049     		ldr	r1, .L28+4
 235 000c 2048     		ldr	r0, .L28+8
 236 000e FFF7FEFF 		bl	Track_PID_Calc
 237              	.LVL20:
 426:Core/Src/main.c ****     Encoder_Update();
 238              		.loc 1 426 5 view .LVU48
 239 0012 FFF7FEFF 		bl	Encoder_Update
 240              	.LVL21:
 427:Core/Src/main.c ****     float pid_out = Get_Track_PID_Out();
 241              		.loc 1 427 5 view .LVU49
 242              		.loc 1 427 21 is_stmt 0 view .LVU50
 243 0016 FFF7FEFF 		bl	Get_Track_PID_Out
 244              	.LVL22:
 245 001a 0446     		mov	r4, r0
 246              	.LVL23:
 428:Core/Src/main.c ****     uint16_t base_pwm = (direction == 0) ? PWM_BASE : PWM_BACK;
 247              		.loc 1 428 5 is_stmt 1 view .LVU51
 248              		.loc 1 428 14 is_stmt 0 view .LVU52
ARM GAS  C:\Users\XUCHEN~1\AppData\Local\Temp\ccIWF9s5.s 			page 13


 249 001c D5B9     		cbnz	r5, .L22
 250              		.loc 1 428 14 discriminator 1 view .LVU53
 251 001e 4FF4C870 		mov	r0, #400
 252              	.LVL24:
 253              	.L17:
 429:Core/Src/main.c ****     int16_t l = base_pwm - pid_out;
 254              		.loc 1 429 5 is_stmt 1 view .LVU54
 255              		.loc 1 429 26 is_stmt 0 view .LVU55
 256 0022 FFF7FEFF 		bl	__aeabi_i2f
 257              	.LVL25:
 258              		.loc 1 429 26 view .LVU56
 259 0026 0746     		mov	r7, r0
 260 0028 2646     		mov	r6, r4
 261 002a 2146     		mov	r1, r4
 262 002c FFF7FEFF 		bl	__aeabi_fsub
 263              	.LVL26:
 264              		.loc 1 429 13 view .LVU57
 265 0030 FFF7FEFF 		bl	__aeabi_f2iz
 266              	.LVL27:
 267 0034 04B2     		sxth	r4, r0
 268              	.LVL28:
 430:Core/Src/main.c ****     int16_t r = base_pwm + pid_out;
 269              		.loc 1 430 5 is_stmt 1 view .LVU58
 270              		.loc 1 430 26 is_stmt 0 view .LVU59
 271 0036 3146     		mov	r1, r6
 272 0038 3846     		mov	r0, r7
 273 003a FFF7FEFF 		bl	__aeabi_fadd
 274              	.LVL29:
 275              		.loc 1 430 13 view .LVU60
 276 003e FFF7FEFF 		bl	__aeabi_f2iz
 277              	.LVL30:
 278 0042 00B2     		sxth	r0, r0
 279              	.LVL31:
 431:Core/Src/main.c ****     if(l < 0) l = 0; 
 280              		.loc 1 431 5 is_stmt 1 view .LVU61
 281              		.loc 1 431 7 is_stmt 0 view .LVU62
 282 0044 002C     		cmp	r4, #0
 283 0046 08DB     		blt	.L23
 432:Core/Src/main.c ****     if(l > 999) l = 999;   //ĽÓ¸öĎŢ·ů
 284              		.loc 1 432 5 is_stmt 1 view .LVU63
 285              		.loc 1 432 7 is_stmt 0 view .LVU64
 286 0048 B4F57A7F 		cmp	r4, #1000
 287 004c 06DB     		blt	.L18
 288              		.loc 1 432 19 discriminator 1 view .LVU65
 289 004e 40F2E734 		movw	r4, #999
 290              	.LVL32:
 291              		.loc 1 432 19 discriminator 1 view .LVU66
 292 0052 03E0     		b	.L18
 293              	.LVL33:
 294              	.L22:
 428:Core/Src/main.c ****     int16_t l = base_pwm - pid_out;
 295              		.loc 1 428 14 discriminator 2 view .LVU67
 296 0054 4FF4AF70 		mov	r0, #350
 297              	.LVL34:
 428:Core/Src/main.c ****     int16_t l = base_pwm - pid_out;
 298              		.loc 1 428 14 discriminator 2 view .LVU68
 299 0058 E3E7     		b	.L17
ARM GAS  C:\Users\XUCHEN~1\AppData\Local\Temp\ccIWF9s5.s 			page 14


 300              	.LVL35:
 301              	.L23:
 431:Core/Src/main.c ****     if(l < 0) l = 0; 
 302              		.loc 1 431 17 discriminator 1 view .LVU69
 303 005a 0024     		movs	r4, #0
 304              	.LVL36:
 305              	.L18:
 433:Core/Src/main.c ****     if(r < 0) r = 0; 
 306              		.loc 1 433 5 is_stmt 1 view .LVU70
 307              		.loc 1 433 7 is_stmt 0 view .LVU71
 308 005c 0028     		cmp	r0, #0
 309 005e 05DB     		blt	.L25
 434:Core/Src/main.c ****     if(r > 999) r = 999;
 310              		.loc 1 434 5 is_stmt 1 view .LVU72
 311              		.loc 1 434 7 is_stmt 0 view .LVU73
 312 0060 B0F57A7F 		cmp	r0, #1000
 313 0064 03DB     		blt	.L19
 314              		.loc 1 434 19 discriminator 1 view .LVU74
 315 0066 40F2E730 		movw	r0, #999
 316              	.LVL37:
 317              		.loc 1 434 19 discriminator 1 view .LVU75
 318 006a 00E0     		b	.L19
 319              	.LVL38:
 320              	.L25:
 433:Core/Src/main.c ****     if(r < 0) r = 0; 
 321              		.loc 1 433 17 discriminator 1 view .LVU76
 322 006c 0020     		movs	r0, #0
 323              	.LVL39:
 324              	.L19:
 435:Core/Src/main.c **** 
 436:Core/Src/main.c ****     if(direction == 0)
 325              		.loc 1 436 5 is_stmt 1 view .LVU77
 326              		.loc 1 436 7 is_stmt 0 view .LVU78
 327 006e 35B9     		cbnz	r5, .L20
 437:Core/Src/main.c ****         Motor_Forward(l, r);
 328              		.loc 1 437 9 is_stmt 1 view .LVU79
 329 0070 81B2     		uxth	r1, r0
 330 0072 A0B2     		uxth	r0, r4
 331              	.LVL40:
 332              		.loc 1 437 9 is_stmt 0 view .LVU80
 333 0074 FFF7FEFF 		bl	Motor_Forward
 334              	.LVL41:
 335              	.L21:
 438:Core/Src/main.c ****     else
 439:Core/Src/main.c ****         Motor_Backward(l, r);
 440:Core/Src/main.c ****     g_car_dir = direction;
 336              		.loc 1 440 5 is_stmt 1 view .LVU81
 337              		.loc 1 440 15 is_stmt 0 view .LVU82
 338 0078 064B     		ldr	r3, .L28+12
 339 007a 1D70     		strb	r5, [r3]
 441:Core/Src/main.c **** }
 340              		.loc 1 441 1 view .LVU83
 341 007c F8BD     		pop	{r3, r4, r5, r6, r7, pc}
 342              	.LVL42:
 343              	.L20:
 439:Core/Src/main.c ****     g_car_dir = direction;
 344              		.loc 1 439 9 is_stmt 1 view .LVU84
ARM GAS  C:\Users\XUCHEN~1\AppData\Local\Temp\ccIWF9s5.s 			page 15


 345 007e 81B2     		uxth	r1, r0
 346 0080 A0B2     		uxth	r0, r4
 347              	.LVL43:
 439:Core/Src/main.c ****     g_car_dir = direction;
 348              		.loc 1 439 9 is_stmt 0 view .LVU85
 349 0082 FFF7FEFF 		bl	Motor_Backward
 350              	.LVL44:
 439:Core/Src/main.c ****     g_car_dir = direction;
 351              		.loc 1 439 9 view .LVU86
 352 0086 F7E7     		b	.L21
 353              	.L29:
 354              		.align	2
 355              	.L28:
 356 0088 9A99993E 		.word	1050253722
 357 008c 0AD7233C 		.word	1008981770
 358 0090 9A99993F 		.word	1067030938
 359 0094 00000000 		.word	g_car_dir
 360              		.cfi_endproc
 361              	.LFE73:
 363              		.section	.text.Wait_AlignComplete,"ax",%progbits
 364              		.align	1
 365              		.global	Wait_AlignComplete
 366              		.syntax unified
 367              		.thumb
 368              		.thumb_func
 370              	Wait_AlignComplete:
 371              	.LVL45:
 372              	.LFB74:
 442:Core/Src/main.c **** 
 443:Core/Src/main.c **** /* µČ´ýĘÓľő¶Ô×ĽÍęłÉŁ¨´řł¬Ę±Ł¬ÄÚ˛żĘąÓĂHAL_DelayŁ¬˛»ÖĐ¶ĎĆäËűÖĐ¶ĎŁ© */
 444:Core/Src/main.c **** uint8_t Wait_AlignComplete(uint32_t timeout_ms)
 445:Core/Src/main.c **** {
 373              		.loc 1 445 1 is_stmt 1 view -0
 374              		.cfi_startproc
 375              		@ args = 0, pretend = 0, frame = 0
 376              		@ frame_needed = 0, uses_anonymous_args = 0
 377              		.loc 1 445 1 is_stmt 0 view .LVU88
 378 0000 70B5     		push	{r4, r5, r6, lr}
 379              	.LCFI4:
 380              		.cfi_def_cfa_offset 16
 381              		.cfi_offset 4, -16
 382              		.cfi_offset 5, -12
 383              		.cfi_offset 6, -8
 384              		.cfi_offset 14, -4
 385 0002 0646     		mov	r6, r0
 446:Core/Src/main.c ****     uint32_t tick = 0;
 386              		.loc 1 446 5 is_stmt 1 view .LVU89
 387              	.LVL46:
 447:Core/Src/main.c ****     uint8_t flag;
 388              		.loc 1 447 5 view .LVU90
 448:Core/Src/main.c ****     while(tick < timeout_ms)
 389              		.loc 1 448 5 view .LVU91
 446:Core/Src/main.c ****     uint32_t tick = 0;
 390              		.loc 1 446 14 is_stmt 0 view .LVU92
 391 0004 0025     		movs	r5, #0
 392              		.loc 1 448 10 view .LVU93
 393 0006 0EE0     		b	.L31
ARM GAS  C:\Users\XUCHEN~1\AppData\Local\Temp\ccIWF9s5.s 			page 16


 394              	.LVL47:
 395              	.L38:
 396              	.LBB4:
 449:Core/Src/main.c ****     {
 450:Core/Src/main.c ****         flag = Vision_GetAlignFlag();
 451:Core/Src/main.c ****         if(flag == 1)   // ĘŐµ˝Ć«ŇĆĘýľÝ
 452:Core/Src/main.c ****         {
 453:Core/Src/main.c ****             Vision_ClearAlignFlag();
 397              		.loc 1 453 13 is_stmt 1 view .LVU94
 398 0008 FFF7FEFF 		bl	Vision_ClearAlignFlag
 399              	.LVL48:
 454:Core/Src/main.c ****             float offset = Vision_GetOffset();
 400              		.loc 1 454 13 view .LVU95
 401              		.loc 1 454 28 is_stmt 0 view .LVU96
 402 000c FFF7FEFF 		bl	Vision_GetOffset
 403              	.LVL49:
 455:Core/Src/main.c ****             if(fabsf(offset) < 0.5f)
 404              		.loc 1 455 13 is_stmt 1 view .LVU97
 405              		.loc 1 455 16 is_stmt 0 view .LVU98
 406 0010 20F00040 		bic	r0, r0, #-2147483648
 407              	.LVL50:
 408              		.loc 1 455 15 view .LVU99
 409 0014 4FF07C51 		mov	r1, #1056964608
 410 0018 FFF7FEFF 		bl	__aeabi_fcmplt
 411              	.LVL51:
 412 001c 88B9     		cbnz	r0, .L33
 413              	.LVL52:
 414              	.L34:
 415              		.loc 1 455 15 view .LVU100
 416              	.LBE4:
 456:Core/Src/main.c ****                 return 1;
 457:Core/Src/main.c ****             // ŐâŔďżÉĽÓČëÎ˘µ÷´úÂëŁ¬ĘˇÂÔ
 458:Core/Src/main.c ****         }
 459:Core/Src/main.c ****         else if(flag == 2)  // ĘŐµ˝OKĐĹşĹ
 460:Core/Src/main.c ****         {
 461:Core/Src/main.c ****             Vision_ClearAlignFlag();
 462:Core/Src/main.c ****             return 1;
 463:Core/Src/main.c ****         }
 464:Core/Src/main.c ****         HAL_Delay(10);
 417              		.loc 1 464 9 is_stmt 1 view .LVU101
 418 001e 0A20     		movs	r0, #10
 419 0020 FFF7FEFF 		bl	HAL_Delay
 420              	.LVL53:
 465:Core/Src/main.c ****         tick += 10;
 421              		.loc 1 465 9 view .LVU102
 422              		.loc 1 465 14 is_stmt 0 view .LVU103
 423 0024 0A35     		adds	r5, r5, #10
 424              	.LVL54:
 425              	.L31:
 448:Core/Src/main.c ****     {
 426              		.loc 1 448 16 is_stmt 1 view .LVU104
 427 0026 B542     		cmp	r5, r6
 428 0028 0AD2     		bcs	.L37
 450:Core/Src/main.c ****         if(flag == 1)   // ĘŐµ˝Ć«ŇĆĘýľÝ
 429              		.loc 1 450 9 view .LVU105
 450:Core/Src/main.c ****         if(flag == 1)   // ĘŐµ˝Ć«ŇĆĘýľÝ
 430              		.loc 1 450 16 is_stmt 0 view .LVU106
ARM GAS  C:\Users\XUCHEN~1\AppData\Local\Temp\ccIWF9s5.s 			page 17


 431 002a FFF7FEFF 		bl	Vision_GetAlignFlag
 432              	.LVL55:
 433 002e 0446     		mov	r4, r0
 434              	.LVL56:
 451:Core/Src/main.c ****         {
 435              		.loc 1 451 9 is_stmt 1 view .LVU107
 451:Core/Src/main.c ****         {
 436              		.loc 1 451 11 is_stmt 0 view .LVU108
 437 0030 0128     		cmp	r0, #1
 438 0032 E9D0     		beq	.L38
 459:Core/Src/main.c ****         {
 439              		.loc 1 459 14 is_stmt 1 view .LVU109
 459:Core/Src/main.c ****         {
 440              		.loc 1 459 16 is_stmt 0 view .LVU110
 441 0034 0228     		cmp	r0, #2
 442 0036 F2D1     		bne	.L34
 461:Core/Src/main.c ****             return 1;
 443              		.loc 1 461 13 is_stmt 1 view .LVU111
 444 0038 FFF7FEFF 		bl	Vision_ClearAlignFlag
 445              	.LVL57:
 462:Core/Src/main.c ****         }
 446              		.loc 1 462 13 view .LVU112
 462:Core/Src/main.c ****         }
 447              		.loc 1 462 20 is_stmt 0 view .LVU113
 448 003c 0124     		movs	r4, #1
 449 003e 00E0     		b	.L33
 450              	.LVL58:
 451              	.L37:
 466:Core/Src/main.c ****     }
 467:Core/Src/main.c ****     return 0;
 452              		.loc 1 467 12 view .LVU114
 453 0040 0024     		movs	r4, #0
 454              	.L33:
 468:Core/Src/main.c **** }
 455              		.loc 1 468 1 view .LVU115
 456 0042 2046     		mov	r0, r4
 457 0044 70BD     		pop	{r4, r5, r6, pc}
 458              		.loc 1 468 1 view .LVU116
 459              		.cfi_endproc
 460              	.LFE74:
 462              		.section	.rodata.State_Machine.str1.4,"aMS",%progbits,1
 463              		.align	2
 464              	.LC1:
 465 0000 50726573 		.ascii	"Press KEY1 start\000"
 465      73204B45 
 465      59312073 
 465      74617274 
 465      00
 466 0011 000000   		.align	2
 467              	.LC2:
 468 0014 52656164 		.ascii	"Ready! Press KEY1\000"
 468      79212050 
 468      72657373 
 468      204B4559 
 468      3100
 469 0026 0000     		.align	2
 470              	.LC3:
ARM GAS  C:\Users\XUCHEN~1\AppData\Local\Temp\ccIWF9s5.s 			page 18


 471 0028 416C6967 		.ascii	"Aligning...\000"
 471      6E696E67 
 471      2E2E2E00 
 472              		.align	2
 473              	.LC4:
 474 0034 5069636B 		.ascii	"Pick %c\000"
 474      20256300 
 475              		.align	2
 476              	.LC5:
 477 003c 416C6967 		.ascii	"Align Unload\000"
 477      6E20556E 
 477      6C6F6164 
 477      00
 478 0049 000000   		.align	2
 479              	.LC6:
 480 004c 44726F70 		.ascii	"Drop %c\000"
 480      20256300 
 481              		.align	2
 482              	.LC7:
 483 0054 5461736B 		.ascii	"Task Finish!\000"
 483      2046696E 
 483      69736821 
 483      00
 484              		.section	.text.State_Machine,"ax",%progbits
 485              		.align	1
 486              		.global	State_Machine
 487              		.syntax unified
 488              		.thumb
 489              		.thumb_func
 491              	State_Machine:
 492              	.LFB71:
 209:Core/Src/main.c ****     uint8_t key;
 493              		.loc 1 209 1 is_stmt 1 view -0
 494              		.cfi_startproc
 495              		@ args = 0, pretend = 0, frame = 16
 496              		@ frame_needed = 0, uses_anonymous_args = 0
 497 0000 30B5     		push	{r4, r5, lr}
 498              	.LCFI5:
 499              		.cfi_def_cfa_offset 12
 500              		.cfi_offset 4, -12
 501              		.cfi_offset 5, -8
 502              		.cfi_offset 14, -4
 503 0002 85B0     		sub	sp, sp, #20
 504              	.LCFI6:
 505              		.cfi_def_cfa_offset 32
 210:Core/Src/main.c ****     int32_t cur_dist;
 506              		.loc 1 210 5 view .LVU118
 211:Core/Src/main.c **** 
 507              		.loc 1 211 5 view .LVU119
 213:Core/Src/main.c ****     {
 508              		.loc 1 213 5 view .LVU120
 509 0004 AC4B     		ldr	r3, .L82
 510 0006 1B78     		ldrb	r3, [r3]	@ zero_extendqisi2
 511 0008 062B     		cmp	r3, #6
 512 000a 00F0FE80 		beq	.L40
 513 000e 45D8     		bhi	.L41
 514 0010 032B     		cmp	r3, #3
ARM GAS  C:\Users\XUCHEN~1\AppData\Local\Temp\ccIWF9s5.s 			page 19


 515 0012 00F09D80 		beq	.L42
 516 0016 20D8     		bhi	.L43
 517 0018 002B     		cmp	r3, #0
 518 001a 00F08F80 		beq	.L44
 519 001e 022B     		cmp	r3, #2
 520 0020 40F08A80 		bne	.L39
 521              	.LBB5:
 229:Core/Src/main.c ****             key = Key_Scan();
 522              		.loc 1 229 13 view .LVU121
 523 0024 A548     		ldr	r0, .L82+4
 524 0026 FFF7FEFF 		bl	OLED_Show_State
 525              	.LVL59:
 230:Core/Src/main.c ****             if(key == 1)
 526              		.loc 1 230 13 view .LVU122
 230:Core/Src/main.c ****             if(key == 1)
 527              		.loc 1 230 19 is_stmt 0 view .LVU123
 528 002a FFF7FEFF 		bl	Key_Scan
 529              	.LVL60:
 231:Core/Src/main.c ****             {
 530              		.loc 1 231 13 is_stmt 1 view .LVU124
 231:Core/Src/main.c ****             {
 531              		.loc 1 231 15 is_stmt 0 view .LVU125
 532 002e 0128     		cmp	r0, #1
 533 0030 40F08280 		bne	.L39
 233:Core/Src/main.c ****                 g_unload_count = 0;
 534              		.loc 1 233 17 is_stmt 1 view .LVU126
 233:Core/Src/main.c ****                 g_unload_count = 0;
 535              		.loc 1 233 30 is_stmt 0 view .LVU127
 536 0034 0023     		movs	r3, #0
 537 0036 A24A     		ldr	r2, .L82+8
 538 0038 1370     		strb	r3, [r2]
 234:Core/Src/main.c ****                 g_order_index = 0;
 539              		.loc 1 234 17 is_stmt 1 view .LVU128
 234:Core/Src/main.c ****                 g_order_index = 0;
 540              		.loc 1 234 32 is_stmt 0 view .LVU129
 541 003a A24A     		ldr	r2, .L82+12
 542 003c 1370     		strb	r3, [r2]
 235:Core/Src/main.c ****                 Encoder_ResetDistance();
 543              		.loc 1 235 17 is_stmt 1 view .LVU130
 235:Core/Src/main.c ****                 Encoder_ResetDistance();
 544              		.loc 1 235 31 is_stmt 0 view .LVU131
 545 003e A24A     		ldr	r2, .L82+16
 546 0040 1370     		strb	r3, [r2]
 236:Core/Src/main.c ****                 g_target_enc = ENC_POS_WAREHOUSE;
 547              		.loc 1 236 17 is_stmt 1 view .LVU132
 548 0042 FFF7FEFF 		bl	Encoder_ResetDistance
 549              	.LVL61:
 237:Core/Src/main.c ****                 g_state = STATE_GO_WAREHOUSE;
 550              		.loc 1 237 17 view .LVU133
 237:Core/Src/main.c ****                 g_state = STATE_GO_WAREHOUSE;
 551              		.loc 1 237 30 is_stmt 0 view .LVU134
 552 0046 A14B     		ldr	r3, .L82+20
 553 0048 4FF49662 		mov	r2, #1200
 554 004c 1A60     		str	r2, [r3]
 238:Core/Src/main.c ****                 OLED_Clear();
 555              		.loc 1 238 17 is_stmt 1 view .LVU135
 238:Core/Src/main.c ****                 OLED_Clear();
ARM GAS  C:\Users\XUCHEN~1\AppData\Local\Temp\ccIWF9s5.s 			page 20


 556              		.loc 1 238 25 is_stmt 0 view .LVU136
 557 004e 9A4B     		ldr	r3, .L82
 558 0050 0322     		movs	r2, #3
 559 0052 1A70     		strb	r2, [r3]
 239:Core/Src/main.c ****             }
 560              		.loc 1 239 17 is_stmt 1 view .LVU137
 561 0054 FFF7FEFF 		bl	OLED_Clear
 562              	.LVL62:
 563 0058 6EE0     		b	.L39
 564              	.LVL63:
 565              	.L43:
 239:Core/Src/main.c ****             }
 566              		.loc 1 239 17 is_stmt 0 view .LVU138
 567              	.LBE5:
 213:Core/Src/main.c ****     {
 568              		.loc 1 213 5 view .LVU139
 569 005a 042B     		cmp	r3, #4
 570 005c 00F08A80 		beq	.L47
 571 0060 052B     		cmp	r3, #5
 572 0062 69D1     		bne	.L39
 573              	.LBB13:
 274:Core/Src/main.c ****             {
 574              		.loc 1 274 13 is_stmt 1 view .LVU140
 274:Core/Src/main.c ****             {
 575              		.loc 1 274 29 is_stmt 0 view .LVU141
 576 0064 964B     		ldr	r3, .L82+8
 577 0066 1A78     		ldrb	r2, [r3]	@ zero_extendqisi2
 274:Core/Src/main.c ****             {
 578              		.loc 1 274 15 view .LVU142
 579 0068 022A     		cmp	r2, #2
 580 006a 40F2A680 		bls	.L73
 581              	.LBB6:
 295:Core/Src/main.c ****                 g_order_index = 0;
 582              		.loc 1 295 17 is_stmt 1 view .LVU143
 295:Core/Src/main.c ****                 g_order_index = 0;
 583              		.loc 1 295 32 is_stmt 0 view .LVU144
 584 006e 0023     		movs	r3, #0
 585 0070 944A     		ldr	r2, .L82+12
 586 0072 1370     		strb	r3, [r2]
 296:Core/Src/main.c ****                 char target_char = g_unload_order[g_order_index];
 587              		.loc 1 296 17 is_stmt 1 view .LVU145
 296:Core/Src/main.c ****                 char target_char = g_unload_order[g_order_index];
 588              		.loc 1 296 31 is_stmt 0 view .LVU146
 589 0074 944A     		ldr	r2, .L82+16
 590 0076 1370     		strb	r3, [r2]
 297:Core/Src/main.c ****                 if(target_char == 'A')      g_target_enc = ENC_POS_A;
 591              		.loc 1 297 17 is_stmt 1 view .LVU147
 297:Core/Src/main.c ****                 if(target_char == 'A')      g_target_enc = ENC_POS_A;
 592              		.loc 1 297 22 is_stmt 0 view .LVU148
 593 0078 954B     		ldr	r3, .L82+24
 594 007a 1B78     		ldrb	r3, [r3]	@ zero_extendqisi2
 595              	.LVL64:
 298:Core/Src/main.c ****                 else if(target_char == 'B') g_target_enc = ENC_POS_B;
 596              		.loc 1 298 17 is_stmt 1 view .LVU149
 298:Core/Src/main.c ****                 else if(target_char == 'B') g_target_enc = ENC_POS_B;
 597              		.loc 1 298 19 is_stmt 0 view .LVU150
 598 007c 412B     		cmp	r3, #65
ARM GAS  C:\Users\XUCHEN~1\AppData\Local\Temp\ccIWF9s5.s 			page 21


 599 007e 00F0BA80 		beq	.L74
 299:Core/Src/main.c ****                 else                        g_target_enc = ENC_POS_C;
 600              		.loc 1 299 22 is_stmt 1 view .LVU151
 299:Core/Src/main.c ****                 else                        g_target_enc = ENC_POS_C;
 601              		.loc 1 299 24 is_stmt 0 view .LVU152
 602 0082 422B     		cmp	r3, #66
 603 0084 00F0BC80 		beq	.L75
 300:Core/Src/main.c ****                 g_state = STATE_GO_UNLOAD;
 604              		.loc 1 300 45 is_stmt 1 view .LVU153
 300:Core/Src/main.c ****                 g_state = STATE_GO_UNLOAD;
 605              		.loc 1 300 58 is_stmt 0 view .LVU154
 606 0088 904B     		ldr	r3, .L82+20
 607              	.LVL65:
 300:Core/Src/main.c ****                 g_state = STATE_GO_UNLOAD;
 608              		.loc 1 300 58 view .LVU155
 609 008a 41F2EC32 		movw	r2, #5100
 610 008e 1A60     		str	r2, [r3]
 611              	.L59:
 301:Core/Src/main.c ****                 OLED_Clear();
 612              		.loc 1 301 17 is_stmt 1 view .LVU156
 301:Core/Src/main.c ****                 OLED_Clear();
 613              		.loc 1 301 25 is_stmt 0 view .LVU157
 614 0090 894B     		ldr	r3, .L82
 615 0092 0622     		movs	r2, #6
 616 0094 1A70     		strb	r2, [r3]
 302:Core/Src/main.c ****             }
 617              		.loc 1 302 17 is_stmt 1 view .LVU158
 618 0096 FFF7FEFF 		bl	OLED_Clear
 619              	.LVL66:
 302:Core/Src/main.c ****             }
 620              		.loc 1 302 17 is_stmt 0 view .LVU159
 621 009a 4DE0     		b	.L39
 622              	.LVL67:
 623              	.L41:
 302:Core/Src/main.c ****             }
 624              		.loc 1 302 17 view .LVU160
 625              	.LBE6:
 626              	.LBE13:
 213:Core/Src/main.c ****     {
 627              		.loc 1 213 5 view .LVU161
 628 009c 092B     		cmp	r3, #9
 629 009e 00F02781 		beq	.L49
 630 00a2 3BD8     		bhi	.L50
 631 00a4 072B     		cmp	r3, #7
 632 00a6 00F0D280 		beq	.L51
 633 00aa 082B     		cmp	r3, #8
 634 00ac 44D1     		bne	.L39
 635              	.LBB14:
 636              	.LBB7:
 338:Core/Src/main.c ****                 sprintf(buf, "Drop %c", g_unload_order[g_order_index]);
 637              		.loc 1 338 17 is_stmt 1 view .LVU162
 339:Core/Src/main.c ****                 OLED_Show_State(buf);
 638              		.loc 1 339 17 view .LVU163
 339:Core/Src/main.c ****                 OLED_Show_State(buf);
 639              		.loc 1 339 55 is_stmt 0 view .LVU164
 640 00ae 864B     		ldr	r3, .L82+16
 641 00b0 1B78     		ldrb	r3, [r3]	@ zero_extendqisi2
ARM GAS  C:\Users\XUCHEN~1\AppData\Local\Temp\ccIWF9s5.s 			page 22


 339:Core/Src/main.c ****                 OLED_Show_State(buf);
 642              		.loc 1 339 17 view .LVU165
 643 00b2 874A     		ldr	r2, .L82+24
 644 00b4 D25C     		ldrb	r2, [r2, r3]	@ zero_extendqisi2
 645 00b6 8749     		ldr	r1, .L82+28
 646 00b8 6846     		mov	r0, sp
 647 00ba FFF7FEFF 		bl	sprintf
 648              	.LVL68:
 340:Core/Src/main.c ****                 if(!Arm_IsDone())
 649              		.loc 1 340 17 is_stmt 1 view .LVU166
 650 00be 6846     		mov	r0, sp
 651 00c0 FFF7FEFF 		bl	OLED_Show_State
 652              	.LVL69:
 341:Core/Src/main.c ****                 {
 653              		.loc 1 341 17 view .LVU167
 341:Core/Src/main.c ****                 {
 654              		.loc 1 341 21 is_stmt 0 view .LVU168
 655 00c4 FFF7FEFF 		bl	Arm_IsDone
 656              	.LVL70:
 341:Core/Src/main.c ****                 {
 657              		.loc 1 341 19 discriminator 1 view .LVU169
 658 00c8 0028     		cmp	r0, #0
 659 00ca 00F0E180 		beq	.L76
 660              	.L64:
 345:Core/Src/main.c ****                 {
 661              		.loc 1 345 17 is_stmt 1 view .LVU170
 345:Core/Src/main.c ****                 {
 662              		.loc 1 345 20 is_stmt 0 view .LVU171
 663 00ce 824B     		ldr	r3, .L82+32
 664 00d0 1B78     		ldrb	r3, [r3]	@ zero_extendqisi2
 345:Core/Src/main.c ****                 {
 665              		.loc 1 345 19 view .LVU172
 666 00d2 8BB3     		cbz	r3, .L39
 347:Core/Src/main.c ****                     Arm_ClearDoneFlag();
 667              		.loc 1 347 21 is_stmt 1 view .LVU173
 347:Core/Src/main.c ****                     Arm_ClearDoneFlag();
 668              		.loc 1 347 38 is_stmt 0 view .LVU174
 669 00d4 804B     		ldr	r3, .L82+32
 670 00d6 0022     		movs	r2, #0
 671 00d8 1A70     		strb	r2, [r3]
 348:Core/Src/main.c ****                     Beep(200);
 672              		.loc 1 348 21 is_stmt 1 view .LVU175
 673 00da FFF7FEFF 		bl	Arm_ClearDoneFlag
 674              	.LVL71:
 349:Core/Src/main.c ****                     LED_Blink(2);
 675              		.loc 1 349 21 view .LVU176
 350:Core/Src/main.c ****                     g_order_index++;
 676              		.loc 1 350 21 view .LVU177
 351:Core/Src/main.c ****                     g_unload_count++;
 677              		.loc 1 351 21 view .LVU178
 351:Core/Src/main.c ****                     g_unload_count++;
 678              		.loc 1 351 34 is_stmt 0 view .LVU179
 679 00de 7A4B     		ldr	r3, .L82+16
 680 00e0 1A78     		ldrb	r2, [r3]	@ zero_extendqisi2
 681 00e2 0132     		adds	r2, r2, #1
 682 00e4 D2B2     		uxtb	r2, r2
 683 00e6 1A70     		strb	r2, [r3]
ARM GAS  C:\Users\XUCHEN~1\AppData\Local\Temp\ccIWF9s5.s 			page 23


 352:Core/Src/main.c ****                     if(g_unload_count < 3)
 684              		.loc 1 352 21 is_stmt 1 view .LVU180
 352:Core/Src/main.c ****                     if(g_unload_count < 3)
 685              		.loc 1 352 35 is_stmt 0 view .LVU181
 686 00e8 7649     		ldr	r1, .L82+12
 687 00ea 0B78     		ldrb	r3, [r1]	@ zero_extendqisi2
 688 00ec 0133     		adds	r3, r3, #1
 689 00ee DBB2     		uxtb	r3, r3
 690 00f0 0B70     		strb	r3, [r1]
 353:Core/Src/main.c ****                     {
 691              		.loc 1 353 21 is_stmt 1 view .LVU182
 353:Core/Src/main.c ****                     {
 692              		.loc 1 353 23 is_stmt 0 view .LVU183
 693 00f2 022B     		cmp	r3, #2
 694 00f4 00F2D980 		bhi	.L66
 695              	.LBB8:
 355:Core/Src/main.c ****                         if(next == 'A')      g_target_enc = ENC_POS_A;
 696              		.loc 1 355 25 is_stmt 1 view .LVU184
 355:Core/Src/main.c ****                         if(next == 'A')      g_target_enc = ENC_POS_A;
 697              		.loc 1 355 30 is_stmt 0 view .LVU185
 698 00f8 754B     		ldr	r3, .L82+24
 699 00fa 9B5C     		ldrb	r3, [r3, r2]	@ zero_extendqisi2
 700              	.LVL72:
 356:Core/Src/main.c ****                         else if(next == 'B') g_target_enc = ENC_POS_B;
 701              		.loc 1 356 25 is_stmt 1 view .LVU186
 356:Core/Src/main.c ****                         else if(next == 'B') g_target_enc = ENC_POS_B;
 702              		.loc 1 356 27 is_stmt 0 view .LVU187
 703 00fc 412B     		cmp	r3, #65
 704 00fe 00F0CA80 		beq	.L77
 357:Core/Src/main.c ****                         else                 g_target_enc = ENC_POS_C;
 705              		.loc 1 357 30 is_stmt 1 view .LVU188
 357:Core/Src/main.c ****                         else                 g_target_enc = ENC_POS_C;
 706              		.loc 1 357 32 is_stmt 0 view .LVU189
 707 0102 422B     		cmp	r3, #66
 708 0104 00F0CC80 		beq	.L78
 358:Core/Src/main.c ****                         g_state = STATE_GO_UNLOAD;
 709              		.loc 1 358 46 is_stmt 1 view .LVU190
 358:Core/Src/main.c ****                         g_state = STATE_GO_UNLOAD;
 710              		.loc 1 358 59 is_stmt 0 view .LVU191
 711 0108 704B     		ldr	r3, .L82+20
 712              	.LVL73:
 358:Core/Src/main.c ****                         g_state = STATE_GO_UNLOAD;
 713              		.loc 1 358 59 view .LVU192
 714 010a 41F2EC32 		movw	r2, #5100
 715              	.LVL74:
 358:Core/Src/main.c ****                         g_state = STATE_GO_UNLOAD;
 716              		.loc 1 358 59 view .LVU193
 717 010e 1A60     		str	r2, [r3]
 718              	.L68:
 359:Core/Src/main.c ****                     }
 719              		.loc 1 359 25 is_stmt 1 view .LVU194
 359:Core/Src/main.c ****                     }
 720              		.loc 1 359 33 is_stmt 0 view .LVU195
 721 0110 694B     		ldr	r3, .L82
 722 0112 0622     		movs	r2, #6
 723 0114 1A70     		strb	r2, [r3]
 724              	.LVL75:
ARM GAS  C:\Users\XUCHEN~1\AppData\Local\Temp\ccIWF9s5.s 			page 24


 725              	.L70:
 359:Core/Src/main.c ****                     }
 726              		.loc 1 359 33 view .LVU196
 727              	.LBE8:
 366:Core/Src/main.c ****                 }
 728              		.loc 1 366 21 is_stmt 1 view .LVU197
 729 0116 FFF7FEFF 		bl	OLED_Clear
 730              	.LVL76:
 731              	.LBE7:
 369:Core/Src/main.c **** 
 732              		.loc 1 369 13 view .LVU198
 733 011a 0DE0     		b	.L39
 734              	.L50:
 735              	.LBE14:
 213:Core/Src/main.c ****     {
 736              		.loc 1 213 5 is_stmt 0 view .LVU199
 737 011c 0A2B     		cmp	r3, #10
 738 011e 0BD1     		bne	.L39
 739              	.LBB15:
 383:Core/Src/main.c ****             Beep(500);
 740              		.loc 1 383 13 is_stmt 1 view .LVU200
 741 0120 6E48     		ldr	r0, .L82+36
 742 0122 FFF7FEFF 		bl	OLED_Show_State
 743              	.LVL77:
 384:Core/Src/main.c ****             HAL_Delay(2000);
 744              		.loc 1 384 13 view .LVU201
 385:Core/Src/main.c ****             g_state = STATE_IDLE;
 745              		.loc 1 385 13 view .LVU202
 746 0126 4FF4FA60 		mov	r0, #2000
 747 012a FFF7FEFF 		bl	HAL_Delay
 748              	.LVL78:
 386:Core/Src/main.c ****             OLED_Clear();
 749              		.loc 1 386 13 view .LVU203
 386:Core/Src/main.c ****             OLED_Clear();
 750              		.loc 1 386 21 is_stmt 0 view .LVU204
 751 012e 624B     		ldr	r3, .L82
 752 0130 0022     		movs	r2, #0
 753 0132 1A70     		strb	r2, [r3]
 387:Core/Src/main.c ****             break;
 754              		.loc 1 387 13 is_stmt 1 view .LVU205
 755 0134 FFF7FEFF 		bl	OLED_Clear
 756              	.LVL79:
 388:Core/Src/main.c ****     }
 757              		.loc 1 388 13 view .LVU206
 758              	.L39:
 759              	.LBE15:
 390:Core/Src/main.c **** 
 760              		.loc 1 390 1 is_stmt 0 view .LVU207
 761 0138 05B0     		add	sp, sp, #20
 762              	.LCFI7:
 763              		.cfi_remember_state
 764              		.cfi_def_cfa_offset 12
 765              		@ sp needed
 766 013a 30BD     		pop	{r4, r5, pc}
 767              	.L44:
 768              	.LCFI8:
 769              		.cfi_restore_state
ARM GAS  C:\Users\XUCHEN~1\AppData\Local\Temp\ccIWF9s5.s 			page 25


 770              	.LBB16:
 216:Core/Src/main.c ****             key = Key_Scan();
 771              		.loc 1 216 13 is_stmt 1 view .LVU208
 772 013c 6848     		ldr	r0, .L82+40
 773 013e FFF7FEFF 		bl	OLED_Show_State
 774              	.LVL80:
 217:Core/Src/main.c ****             if(key == 1)
 775              		.loc 1 217 13 view .LVU209
 217:Core/Src/main.c ****             if(key == 1)
 776              		.loc 1 217 19 is_stmt 0 view .LVU210
 777 0142 FFF7FEFF 		bl	Key_Scan
 778              	.LVL81:
 218:Core/Src/main.c ****             {
 779              		.loc 1 218 13 is_stmt 1 view .LVU211
 218:Core/Src/main.c ****             {
 780              		.loc 1 218 15 is_stmt 0 view .LVU212
 781 0146 0128     		cmp	r0, #1
 782 0148 F6D1     		bne	.L39
 220:Core/Src/main.c ****             }
 783              		.loc 1 220 17 is_stmt 1 view .LVU213
 784 014a FFF7FEFF 		bl	Start_Order_Setting
 785              	.LVL82:
 220:Core/Src/main.c ****             }
 786              		.loc 1 220 17 is_stmt 0 view .LVU214
 787 014e F3E7     		b	.L39
 788              	.LVL83:
 789              	.L42:
 244:Core/Src/main.c ****             if(Encoder_GetDistance() >= g_target_enc)
 790              		.loc 1 244 13 is_stmt 1 view .LVU215
 791 0150 0021     		movs	r1, #0
 792 0152 5E4C     		ldr	r4, .L82+20
 793 0154 2068     		ldr	r0, [r4]
 794 0156 FFF7FEFF 		bl	Execute_LineTracking
 795              	.LVL84:
 245:Core/Src/main.c ****             {
 796              		.loc 1 245 13 view .LVU216
 245:Core/Src/main.c ****             {
 797              		.loc 1 245 16 is_stmt 0 view .LVU217
 798 015a FFF7FEFF 		bl	Encoder_GetDistance
 799              	.LVL85:
 245:Core/Src/main.c ****             {
 800              		.loc 1 245 38 discriminator 1 view .LVU218
 801 015e 2368     		ldr	r3, [r4]
 245:Core/Src/main.c ****             {
 802              		.loc 1 245 15 discriminator 1 view .LVU219
 803 0160 9842     		cmp	r0, r3
 804 0162 E9DB     		blt	.L39
 247:Core/Src/main.c ****                 g_state = STATE_ALIGN_WAREHOUSE;
 805              		.loc 1 247 17 is_stmt 1 view .LVU220
 806 0164 FFF7FEFF 		bl	Motor_Stop
 807              	.LVL86:
 248:Core/Src/main.c ****                 OLED_Clear();
 808              		.loc 1 248 17 view .LVU221
 248:Core/Src/main.c ****                 OLED_Clear();
 809              		.loc 1 248 25 is_stmt 0 view .LVU222
 810 0168 534B     		ldr	r3, .L82
 811 016a 0422     		movs	r2, #4
ARM GAS  C:\Users\XUCHEN~1\AppData\Local\Temp\ccIWF9s5.s 			page 26


 812 016c 1A70     		strb	r2, [r3]
 249:Core/Src/main.c ****             }
 813              		.loc 1 249 17 is_stmt 1 view .LVU223
 814 016e FFF7FEFF 		bl	OLED_Clear
 815              	.LVL87:
 816 0172 E1E7     		b	.L39
 817              	.L47:
 254:Core/Src/main.c ****             OpenMV_SetMode(3);
 818              		.loc 1 254 13 view .LVU224
 819 0174 5B48     		ldr	r0, .L82+44
 820 0176 FFF7FEFF 		bl	OLED_Show_State
 821              	.LVL88:
 255:Core/Src/main.c ****             Arm_MoveToPoint(ARM_POINT_ALIGN);
 822              		.loc 1 255 13 view .LVU225
 823 017a 0320     		movs	r0, #3
 824 017c FFF7FEFF 		bl	OpenMV_SetMode
 825              	.LVL89:
 256:Core/Src/main.c ****             if(Wait_AlignComplete(5000))
 826              		.loc 1 256 13 view .LVU226
 827 0180 0120     		movs	r0, #1
 828 0182 FFF7FEFF 		bl	Arm_MoveToPoint
 829              	.LVL90:
 257:Core/Src/main.c ****             {
 830              		.loc 1 257 13 view .LVU227
 257:Core/Src/main.c ****             {
 831              		.loc 1 257 16 is_stmt 0 view .LVU228
 832 0186 41F28830 		movw	r0, #5000
 833 018a FFF7FEFF 		bl	Wait_AlignComplete
 834              	.LVL91:
 257:Core/Src/main.c ****             {
 835              		.loc 1 257 15 discriminator 1 view .LVU229
 836 018e 70B1     		cbz	r0, .L54
 259:Core/Src/main.c ****                 Arm_MoveToPoint(ARM_POINT_RESET);
 837              		.loc 1 259 17 is_stmt 1 view .LVU230
 838 0190 0120     		movs	r0, #1
 839 0192 FFF7FEFF 		bl	OLED_Show_AlignResult
 840              	.LVL92:
 260:Core/Src/main.c ****                 g_state = STATE_PICK_GOODS;
 841              		.loc 1 260 17 view .LVU231
 842 0196 0020     		movs	r0, #0
 843 0198 FFF7FEFF 		bl	Arm_MoveToPoint
 844              	.LVL93:
 261:Core/Src/main.c ****                 g_arm_done_event = 0;
 845              		.loc 1 261 17 view .LVU232
 261:Core/Src/main.c ****                 g_arm_done_event = 0;
 846              		.loc 1 261 25 is_stmt 0 view .LVU233
 847 019c 464B     		ldr	r3, .L82
 848 019e 0522     		movs	r2, #5
 849 01a0 1A70     		strb	r2, [r3]
 262:Core/Src/main.c ****                 Arm_ClearDoneFlag();
 850              		.loc 1 262 17 is_stmt 1 view .LVU234
 262:Core/Src/main.c ****                 Arm_ClearDoneFlag();
 851              		.loc 1 262 34 is_stmt 0 view .LVU235
 852 01a2 4D4B     		ldr	r3, .L82+32
 853 01a4 0022     		movs	r2, #0
 854 01a6 1A70     		strb	r2, [r3]
 263:Core/Src/main.c ****             }
ARM GAS  C:\Users\XUCHEN~1\AppData\Local\Temp\ccIWF9s5.s 			page 27


 855              		.loc 1 263 17 is_stmt 1 view .LVU236
 856 01a8 FFF7FEFF 		bl	Arm_ClearDoneFlag
 857              	.LVL94:
 858 01ac C4E7     		b	.L39
 859              	.L54:
 267:Core/Src/main.c ****                 // ł¬Ę±Ň˛ĽĚĐřŁ¬żÉĽÓÉůąâ±¨ľŻ
 860              		.loc 1 267 17 view .LVU237
 861 01ae FFF7FEFF 		bl	OLED_Show_AlignResult
 862              	.LVL95:
 269:Core/Src/main.c ****             }
 863              		.loc 1 269 17 view .LVU238
 269:Core/Src/main.c ****             }
 864              		.loc 1 269 25 is_stmt 0 view .LVU239
 865 01b2 414B     		ldr	r3, .L82
 866 01b4 0522     		movs	r2, #5
 867 01b6 1A70     		strb	r2, [r3]
 868 01b8 BEE7     		b	.L39
 869              	.L73:
 870              	.LBB10:
 276:Core/Src/main.c ****                 sprintf(buf, "Pick %c", 'A' + g_pick_index);
 871              		.loc 1 276 17 is_stmt 1 view .LVU240
 277:Core/Src/main.c ****                 OLED_Show_State(buf);
 872              		.loc 1 277 17 view .LVU241
 873 01ba 4132     		adds	r2, r2, #65
 874 01bc 4A49     		ldr	r1, .L82+48
 875 01be 6846     		mov	r0, sp
 876 01c0 FFF7FEFF 		bl	sprintf
 877              	.LVL96:
 278:Core/Src/main.c ****                 if(!Arm_IsDone())
 878              		.loc 1 278 17 view .LVU242
 879 01c4 6846     		mov	r0, sp
 880 01c6 FFF7FEFF 		bl	OLED_Show_State
 881              	.LVL97:
 279:Core/Src/main.c ****                 {
 882              		.loc 1 279 17 view .LVU243
 279:Core/Src/main.c ****                 {
 883              		.loc 1 279 21 is_stmt 0 view .LVU244
 884 01ca FFF7FEFF 		bl	Arm_IsDone
 885              	.LVL98:
 279:Core/Src/main.c ****                 {
 886              		.loc 1 279 19 discriminator 1 view .LVU245
 887 01ce 68B1     		cbz	r0, .L79
 888              	.L56:
 283:Core/Src/main.c ****                 {
 889              		.loc 1 283 17 is_stmt 1 view .LVU246
 283:Core/Src/main.c ****                 {
 890              		.loc 1 283 20 is_stmt 0 view .LVU247
 891 01d0 414B     		ldr	r3, .L82+32
 892 01d2 1B78     		ldrb	r3, [r3]	@ zero_extendqisi2
 283:Core/Src/main.c ****                 {
 893              		.loc 1 283 19 view .LVU248
 894 01d4 002B     		cmp	r3, #0
 895 01d6 AFD0     		beq	.L39
 285:Core/Src/main.c ****                     Arm_ClearDoneFlag();
 896              		.loc 1 285 21 is_stmt 1 view .LVU249
 285:Core/Src/main.c ****                     Arm_ClearDoneFlag();
 897              		.loc 1 285 38 is_stmt 0 view .LVU250
ARM GAS  C:\Users\XUCHEN~1\AppData\Local\Temp\ccIWF9s5.s 			page 28


 898 01d8 3F4B     		ldr	r3, .L82+32
 899 01da 0022     		movs	r2, #0
 900 01dc 1A70     		strb	r2, [r3]
 286:Core/Src/main.c ****                     g_pick_index++;
 901              		.loc 1 286 21 is_stmt 1 view .LVU251
 902 01de FFF7FEFF 		bl	Arm_ClearDoneFlag
 903              	.LVL99:
 287:Core/Src/main.c ****                     Beep(100);
 904              		.loc 1 287 21 view .LVU252
 287:Core/Src/main.c ****                     Beep(100);
 905              		.loc 1 287 33 is_stmt 0 view .LVU253
 906 01e2 374A     		ldr	r2, .L82+8
 907 01e4 1378     		ldrb	r3, [r2]	@ zero_extendqisi2
 908 01e6 0133     		adds	r3, r3, #1
 909 01e8 1370     		strb	r3, [r2]
 288:Core/Src/main.c ****                     LED_Blink(1);
 910              		.loc 1 288 21 is_stmt 1 view .LVU254
 289:Core/Src/main.c ****                 }
 911              		.loc 1 289 21 view .LVU255
 912 01ea A5E7     		b	.L39
 913              	.L79:
 281:Core/Src/main.c ****                 }
 914              		.loc 1 281 21 view .LVU256
 915 01ec 344B     		ldr	r3, .L82+8
 916 01ee 1878     		ldrb	r0, [r3]	@ zero_extendqisi2
 917 01f0 FFF7FEFF 		bl	Arm_PickSequence
 918              	.LVL100:
 919 01f4 ECE7     		b	.L56
 920              	.LVL101:
 921              	.L74:
 281:Core/Src/main.c ****                 }
 922              		.loc 1 281 21 is_stmt 0 view .LVU257
 923              	.LBE10:
 924              	.LBB11:
 298:Core/Src/main.c ****                 else if(target_char == 'B') g_target_enc = ENC_POS_B;
 925              		.loc 1 298 45 is_stmt 1 discriminator 1 view .LVU258
 298:Core/Src/main.c ****                 else if(target_char == 'B') g_target_enc = ENC_POS_B;
 926              		.loc 1 298 58 is_stmt 0 discriminator 1 view .LVU259
 927 01f6 354B     		ldr	r3, .L82+20
 928              	.LVL102:
 298:Core/Src/main.c ****                 else if(target_char == 'B') g_target_enc = ENC_POS_B;
 929              		.loc 1 298 58 discriminator 1 view .LVU260
 930 01f8 40F6C412 		movw	r2, #2500
 931 01fc 1A60     		str	r2, [r3]
 932 01fe 47E7     		b	.L59
 933              	.LVL103:
 934              	.L75:
 299:Core/Src/main.c ****                 else                        g_target_enc = ENC_POS_C;
 935              		.loc 1 299 45 is_stmt 1 discriminator 1 view .LVU261
 299:Core/Src/main.c ****                 else                        g_target_enc = ENC_POS_C;
 936              		.loc 1 299 58 is_stmt 0 discriminator 1 view .LVU262
 937 0200 324B     		ldr	r3, .L82+20
 938              	.LVL104:
 299:Core/Src/main.c ****                 else                        g_target_enc = ENC_POS_C;
 939              		.loc 1 299 58 discriminator 1 view .LVU263
 940 0202 40F6D862 		movw	r2, #3800
 941 0206 1A60     		str	r2, [r3]
ARM GAS  C:\Users\XUCHEN~1\AppData\Local\Temp\ccIWF9s5.s 			page 29


 942 0208 42E7     		b	.L59
 943              	.LVL105:
 944              	.L40:
 299:Core/Src/main.c ****                 else                        g_target_enc = ENC_POS_C;
 945              		.loc 1 299 58 discriminator 1 view .LVU264
 946              	.LBE11:
 307:Core/Src/main.c ****             uint8_t dir = (g_target_enc > cur_dist) ? 0 : 1;
 947              		.loc 1 307 13 is_stmt 1 view .LVU265
 307:Core/Src/main.c ****             uint8_t dir = (g_target_enc > cur_dist) ? 0 : 1;
 948              		.loc 1 307 24 is_stmt 0 view .LVU266
 949 020a FFF7FEFF 		bl	Encoder_GetDistance
 950              	.LVL106:
 951 020e 0546     		mov	r5, r0
 952              	.LVL107:
 308:Core/Src/main.c ****             Execute_LineTracking(g_target_enc, dir);
 953              		.loc 1 308 13 is_stmt 1 view .LVU267
 308:Core/Src/main.c ****             Execute_LineTracking(g_target_enc, dir);
 954              		.loc 1 308 57 is_stmt 0 view .LVU268
 955 0210 2E4B     		ldr	r3, .L82+20
 956 0212 1B68     		ldr	r3, [r3]
 957 0214 1C46     		mov	r4, r3
 958              	.LVL108:
 309:Core/Src/main.c ****             if((dir == 0 && cur_dist >= g_target_enc) || (dir == 1 && cur_dist <= g_target_enc))
 959              		.loc 1 309 13 is_stmt 1 view .LVU269
 960 0216 8342     		cmp	r3, r0
 961 0218 CCBF     		ite	gt
 962 021a 0021     		movgt	r1, #0
 963 021c 0121     		movle	r1, #1
 964 021e 1846     		mov	r0, r3
 965              	.LVL109:
 309:Core/Src/main.c ****             if((dir == 0 && cur_dist >= g_target_enc) || (dir == 1 && cur_dist <= g_target_enc))
 966              		.loc 1 309 13 is_stmt 0 view .LVU270
 967 0220 FFF7FEFF 		bl	Execute_LineTracking
 968              	.LVL110:
 310:Core/Src/main.c ****             {
 969              		.loc 1 310 13 is_stmt 1 view .LVU271
 310:Core/Src/main.c ****             {
 970              		.loc 1 310 15 is_stmt 0 view .LVU272
 971 0224 AC42     		cmp	r4, r5
 972 0226 03DD     		ble	.L61
 310:Core/Src/main.c ****             {
 973              		.loc 1 310 38 discriminator 1 view .LVU273
 974 0228 284B     		ldr	r3, .L82+20
 975 022a 1B68     		ldr	r3, [r3]
 310:Core/Src/main.c ****             {
 976              		.loc 1 310 26 discriminator 1 view .LVU274
 977 022c AB42     		cmp	r3, r5
 978 022e 06DD     		ble	.L62
 979              	.L61:
 310:Core/Src/main.c ****             {
 980              		.loc 1 310 55 discriminator 3 view .LVU275
 981 0230 AC42     		cmp	r4, r5
 982 0232 81DC     		bgt	.L39
 310:Core/Src/main.c ****             {
 983              		.loc 1 310 80 discriminator 4 view .LVU276
 984 0234 254B     		ldr	r3, .L82+20
 985 0236 1B68     		ldr	r3, [r3]
ARM GAS  C:\Users\XUCHEN~1\AppData\Local\Temp\ccIWF9s5.s 			page 30


 310:Core/Src/main.c ****             {
 986              		.loc 1 310 68 discriminator 4 view .LVU277
 987 0238 AB42     		cmp	r3, r5
 988 023a FFF67DAF 		blt	.L39
 989              	.L62:
 312:Core/Src/main.c ****                 g_state = STATE_ALIGN_UNLOAD;
 990              		.loc 1 312 17 is_stmt 1 view .LVU278
 991 023e FFF7FEFF 		bl	Motor_Stop
 992              	.LVL111:
 313:Core/Src/main.c ****                 OLED_Clear();
 993              		.loc 1 313 17 view .LVU279
 313:Core/Src/main.c ****                 OLED_Clear();
 994              		.loc 1 313 25 is_stmt 0 view .LVU280
 995 0242 1D4B     		ldr	r3, .L82
 996 0244 0722     		movs	r2, #7
 997 0246 1A70     		strb	r2, [r3]
 314:Core/Src/main.c ****             }
 998              		.loc 1 314 17 is_stmt 1 view .LVU281
 999 0248 FFF7FEFF 		bl	OLED_Clear
 1000              	.LVL112:
 1001 024c 74E7     		b	.L39
 1002              	.LVL113:
 1003              	.L51:
 319:Core/Src/main.c ****             OpenMV_SetMode(3);
 1004              		.loc 1 319 13 view .LVU282
 1005 024e 2748     		ldr	r0, .L82+52
 1006 0250 FFF7FEFF 		bl	OLED_Show_State
 1007              	.LVL114:
 320:Core/Src/main.c ****             Arm_MoveToPoint(ARM_POINT_ALIGN);
 1008              		.loc 1 320 13 view .LVU283
 1009 0254 0320     		movs	r0, #3
 1010 0256 FFF7FEFF 		bl	OpenMV_SetMode
 1011              	.LVL115:
 321:Core/Src/main.c ****             if(Wait_AlignComplete(5000))
 1012              		.loc 1 321 13 view .LVU284
 1013 025a 0120     		movs	r0, #1
 1014 025c FFF7FEFF 		bl	Arm_MoveToPoint
 1015              	.LVL116:
 322:Core/Src/main.c ****             {
 1016              		.loc 1 322 13 view .LVU285
 322:Core/Src/main.c ****             {
 1017              		.loc 1 322 16 is_stmt 0 view .LVU286
 1018 0260 41F28830 		movw	r0, #5000
 1019 0264 FFF7FEFF 		bl	Wait_AlignComplete
 1020              	.LVL117:
 322:Core/Src/main.c ****             {
 1021              		.loc 1 322 15 discriminator 1 view .LVU287
 1022 0268 18B9     		cbnz	r0, .L80
 332:Core/Src/main.c ****             }
 1023              		.loc 1 332 17 is_stmt 1 view .LVU288
 332:Core/Src/main.c ****             }
 1024              		.loc 1 332 25 is_stmt 0 view .LVU289
 1025 026a 134B     		ldr	r3, .L82
 1026 026c 0822     		movs	r2, #8
 1027 026e 1A70     		strb	r2, [r3]
 1028 0270 62E7     		b	.L39
 1029              	.L80:
ARM GAS  C:\Users\XUCHEN~1\AppData\Local\Temp\ccIWF9s5.s 			page 31


 324:Core/Src/main.c ****                 Arm_MoveToPoint(ARM_POINT_RESET);
 1030              		.loc 1 324 17 is_stmt 1 view .LVU290
 1031 0272 0120     		movs	r0, #1
 1032 0274 FFF7FEFF 		bl	OLED_Show_AlignResult
 1033              	.LVL118:
 325:Core/Src/main.c ****                 g_state = STATE_DROP_GOODS;
 1034              		.loc 1 325 17 view .LVU291
 1035 0278 0020     		movs	r0, #0
 1036 027a FFF7FEFF 		bl	Arm_MoveToPoint
 1037              	.LVL119:
 326:Core/Src/main.c ****                 g_arm_done_event = 0;
 1038              		.loc 1 326 17 view .LVU292
 326:Core/Src/main.c ****                 g_arm_done_event = 0;
 1039              		.loc 1 326 25 is_stmt 0 view .LVU293
 1040 027e 0E4B     		ldr	r3, .L82
 1041 0280 0822     		movs	r2, #8
 1042 0282 1A70     		strb	r2, [r3]
 327:Core/Src/main.c ****                 Arm_ClearDoneFlag();
 1043              		.loc 1 327 17 is_stmt 1 view .LVU294
 327:Core/Src/main.c ****                 Arm_ClearDoneFlag();
 1044              		.loc 1 327 34 is_stmt 0 view .LVU295
 1045 0284 144B     		ldr	r3, .L82+32
 1046 0286 0022     		movs	r2, #0
 1047 0288 1A70     		strb	r2, [r3]
 328:Core/Src/main.c ****             }
 1048              		.loc 1 328 17 is_stmt 1 view .LVU296
 1049 028a FFF7FEFF 		bl	Arm_ClearDoneFlag
 1050              	.LVL120:
 1051 028e 53E7     		b	.L39
 1052              	.L76:
 1053              	.LBB12:
 343:Core/Src/main.c ****                 }
 1054              		.loc 1 343 21 view .LVU297
 1055 0290 FFF7FEFF 		bl	Arm_DropSequence
 1056              	.LVL121:
 1057 0294 1BE7     		b	.L64
 1058              	.LVL122:
 1059              	.L77:
 1060              	.LBB9:
 356:Core/Src/main.c ****                         else if(next == 'B') g_target_enc = ENC_POS_B;
 1061              		.loc 1 356 46 discriminator 1 view .LVU298
 356:Core/Src/main.c ****                         else if(next == 'B') g_target_enc = ENC_POS_B;
 1062              		.loc 1 356 59 is_stmt 0 discriminator 1 view .LVU299
 1063 0296 0D4B     		ldr	r3, .L82+20
 1064              	.LVL123:
 356:Core/Src/main.c ****                         else if(next == 'B') g_target_enc = ENC_POS_B;
 1065              		.loc 1 356 59 discriminator 1 view .LVU300
 1066 0298 40F6C412 		movw	r2, #2500
 1067              	.LVL124:
 356:Core/Src/main.c ****                         else if(next == 'B') g_target_enc = ENC_POS_B;
 1068              		.loc 1 356 59 discriminator 1 view .LVU301
 1069 029c 1A60     		str	r2, [r3]
 1070 029e 37E7     		b	.L68
 1071              	.LVL125:
 1072              	.L78:
 357:Core/Src/main.c ****                         else                 g_target_enc = ENC_POS_C;
 1073              		.loc 1 357 46 is_stmt 1 discriminator 1 view .LVU302
ARM GAS  C:\Users\XUCHEN~1\AppData\Local\Temp\ccIWF9s5.s 			page 32


 357:Core/Src/main.c ****                         else                 g_target_enc = ENC_POS_C;
 1074              		.loc 1 357 59 is_stmt 0 discriminator 1 view .LVU303
 1075 02a0 0A4B     		ldr	r3, .L82+20
 1076              	.LVL126:
 357:Core/Src/main.c ****                         else                 g_target_enc = ENC_POS_C;
 1077              		.loc 1 357 59 discriminator 1 view .LVU304
 1078 02a2 40F6D862 		movw	r2, #3800
 1079              	.LVL127:
 357:Core/Src/main.c ****                         else                 g_target_enc = ENC_POS_C;
 1080              		.loc 1 357 59 discriminator 1 view .LVU305
 1081 02a6 1A60     		str	r2, [r3]
 1082 02a8 32E7     		b	.L68
 1083              	.LVL128:
 1084              	.L66:
 357:Core/Src/main.c ****                         else                 g_target_enc = ENC_POS_C;
 1085              		.loc 1 357 59 discriminator 1 view .LVU306
 1086              	.LBE9:
 363:Core/Src/main.c ****                         g_state = STATE_RETURN_HOME;
 1087              		.loc 1 363 25 is_stmt 1 view .LVU307
 363:Core/Src/main.c ****                         g_state = STATE_RETURN_HOME;
 1088              		.loc 1 363 38 is_stmt 0 view .LVU308
 1089 02aa 084B     		ldr	r3, .L82+20
 1090 02ac 0022     		movs	r2, #0
 1091 02ae 1A60     		str	r2, [r3]
 364:Core/Src/main.c ****                     }
 1092              		.loc 1 364 25 is_stmt 1 view .LVU309
 364:Core/Src/main.c ****                     }
 1093              		.loc 1 364 33 is_stmt 0 view .LVU310
 1094 02b0 014B     		ldr	r3, .L82
 1095 02b2 0922     		movs	r2, #9
 1096 02b4 1A70     		strb	r2, [r3]
 1097 02b6 2EE7     		b	.L70
 1098              	.L83:
 1099              		.align	2
 1100              	.L82:
 1101 02b8 00000000 		.word	g_state
 1102 02bc 14000000 		.word	.LC2
 1103 02c0 00000000 		.word	g_pick_index
 1104 02c4 00000000 		.word	g_unload_count
 1105 02c8 00000000 		.word	g_order_index
 1106 02cc 00000000 		.word	g_target_enc
 1107 02d0 00000000 		.word	g_unload_order
 1108 02d4 4C000000 		.word	.LC6
 1109 02d8 00000000 		.word	g_arm_done_event
 1110 02dc 54000000 		.word	.LC7
 1111 02e0 00000000 		.word	.LC1
 1112 02e4 28000000 		.word	.LC3
 1113 02e8 34000000 		.word	.LC4
 1114 02ec 3C000000 		.word	.LC5
 1115              	.L49:
 1116              	.LBE12:
 372:Core/Src/main.c ****             dir = (0 > cur_dist) ? 0 : 1;
 1117              		.loc 1 372 13 is_stmt 1 view .LVU311
 372:Core/Src/main.c ****             dir = (0 > cur_dist) ? 0 : 1;
 1118              		.loc 1 372 24 is_stmt 0 view .LVU312
 1119 02f0 FFF7FEFF 		bl	Encoder_GetDistance
 1120              	.LVL129:
ARM GAS  C:\Users\XUCHEN~1\AppData\Local\Temp\ccIWF9s5.s 			page 33


 1121 02f4 0446     		mov	r4, r0
 1122              	.LVL130:
 373:Core/Src/main.c ****             Execute_LineTracking(0, dir);
 1123              		.loc 1 373 13 is_stmt 1 view .LVU313
 374:Core/Src/main.c ****             if((dir == 0 && cur_dist >= 0) || (dir == 1 && cur_dist <= 0))
 1124              		.loc 1 374 13 view .LVU314
 1125 02f6 C143     		mvns	r1, r0
 1126 02f8 C90F     		lsrs	r1, r1, #31
 1127 02fa 0020     		movs	r0, #0
 1128              	.LVL131:
 374:Core/Src/main.c ****             if((dir == 0 && cur_dist >= 0) || (dir == 1 && cur_dist <= 0))
 1129              		.loc 1 374 13 is_stmt 0 view .LVU315
 1130 02fc FFF7FEFF 		bl	Execute_LineTracking
 1131              	.LVL132:
 375:Core/Src/main.c ****             {
 1132              		.loc 1 375 13 is_stmt 1 view .LVU316
 375:Core/Src/main.c ****             {
 1133              		.loc 1 375 15 is_stmt 0 view .LVU317
 1134 0300 002C     		cmp	r4, #0
 1135 0302 08DB     		blt	.L81
 1136              	.L71:
 375:Core/Src/main.c ****             {
 1137              		.loc 1 375 57 discriminator 4 view .LVU318
 1138 0304 002C     		cmp	r4, #0
 1139 0306 3FF717AF 		bgt	.L39
 377:Core/Src/main.c ****                 g_state = STATE_FINISH;
 1140              		.loc 1 377 17 is_stmt 1 view .LVU319
 1141 030a FFF7FEFF 		bl	Motor_Stop
 1142              	.LVL133:
 378:Core/Src/main.c ****             }
 1143              		.loc 1 378 17 view .LVU320
 378:Core/Src/main.c ****             }
 1144              		.loc 1 378 25 is_stmt 0 view .LVU321
 1145 030e 034B     		ldr	r3, .L84
 1146 0310 0A22     		movs	r2, #10
 1147 0312 1A70     		strb	r2, [r3]
 1148 0314 10E7     		b	.L39
 1149              	.L81:
 375:Core/Src/main.c ****             {
 1150              		.loc 1 375 44 discriminator 3 view .LVU322
 1151 0316 F5DA     		bge	.L71
 1152 0318 0EE7     		b	.L39
 1153              	.L85:
 1154 031a 00BF     		.align	2
 1155              	.L84:
 1156 031c 00000000 		.word	g_state
 1157              	.LBE16:
 1158              		.cfi_endproc
 1159              	.LFE71:
 1161              		.section	.text.Beep,"ax",%progbits
 1162              		.align	1
 1163              		.global	Beep
 1164              		.syntax unified
 1165              		.thumb
 1166              		.thumb_func
 1168              	Beep:
 1169              	.LVL134:
ARM GAS  C:\Users\XUCHEN~1\AppData\Local\Temp\ccIWF9s5.s 			page 34


 1170              	.LFB75:
 469:Core/Src/main.c **** 
 470:Core/Src/main.c **** void Beep(uint16_t ms)
 471:Core/Src/main.c **** {
 1171              		.loc 1 471 1 is_stmt 1 view -0
 1172              		.cfi_startproc
 1173              		@ args = 0, pretend = 0, frame = 0
 1174              		@ frame_needed = 0, uses_anonymous_args = 0
 1175              		@ link register save eliminated.
 472:Core/Src/main.c ****     // ĘµĽĘ·äĂůĆ÷´úÂëŁ¬°´ĐčĘµĎÖ
 473:Core/Src/main.c ****     // HAL_GPIO_WritePin(BUZZER_GPIO_Port, BUZZER_Pin, GPIO_PIN_SET);
 474:Core/Src/main.c ****     // HAL_Delay(ms);
 475:Core/Src/main.c ****     // HAL_GPIO_WritePin(BUZZER_GPIO_Port, BUZZER_Pin, GPIO_PIN_RESET);
 476:Core/Src/main.c **** }
 1176              		.loc 1 476 1 view .LVU324
 1177 0000 7047     		bx	lr
 1178              		.cfi_endproc
 1179              	.LFE75:
 1181              		.section	.text.LED_Blink,"ax",%progbits
 1182              		.align	1
 1183              		.global	LED_Blink
 1184              		.syntax unified
 1185              		.thumb
 1186              		.thumb_func
 1188              	LED_Blink:
 1189              	.LVL135:
 1190              	.LFB76:
 477:Core/Src/main.c **** 
 478:Core/Src/main.c **** void LED_Blink(uint8_t times)
 479:Core/Src/main.c **** {
 1191              		.loc 1 479 1 view -0
 1192              		.cfi_startproc
 1193              		@ args = 0, pretend = 0, frame = 0
 1194              		@ frame_needed = 0, uses_anonymous_args = 0
 1195              		@ link register save eliminated.
 480:Core/Src/main.c ****     for(uint8_t i=0; i<times; i++)
 1196              		.loc 1 480 5 view .LVU326
 1197              	.LBB17:
 1198              		.loc 1 480 9 view .LVU327
 1199              		.loc 1 480 17 is_stmt 0 view .LVU328
 1200 0000 0023     		movs	r3, #0
 1201              		.loc 1 480 5 view .LVU329
 1202 0002 01E0     		b	.L88
 1203              	.LVL136:
 1204              	.L89:
 481:Core/Src/main.c ****     {
 482:Core/Src/main.c ****         // LED_ON(); HAL_Delay(100); LED_OFF(); HAL_Delay(100);
 483:Core/Src/main.c ****     }
 1205              		.loc 1 483 5 is_stmt 1 view .LVU330
 480:Core/Src/main.c ****     for(uint8_t i=0; i<times; i++)
 1206              		.loc 1 480 32 discriminator 3 view .LVU331
 1207 0004 0133     		adds	r3, r3, #1
 1208              	.LVL137:
 480:Core/Src/main.c ****     for(uint8_t i=0; i<times; i++)
 1209              		.loc 1 480 32 is_stmt 0 discriminator 3 view .LVU332
 1210 0006 DBB2     		uxtb	r3, r3
 1211              	.LVL138:
ARM GAS  C:\Users\XUCHEN~1\AppData\Local\Temp\ccIWF9s5.s 			page 35


 1212              	.L88:
 480:Core/Src/main.c ****     for(uint8_t i=0; i<times; i++)
 1213              		.loc 1 480 23 is_stmt 1 discriminator 1 view .LVU333
 1214 0008 8342     		cmp	r3, r0
 1215 000a FBD3     		bcc	.L89
 1216              	.LBE17:
 484:Core/Src/main.c **** }
 1217              		.loc 1 484 1 is_stmt 0 view .LVU334
 1218 000c 7047     		bx	lr
 1219              		.cfi_endproc
 1220              	.LFE76:
 1222              		.section	.text.Error_Handler,"ax",%progbits
 1223              		.align	1
 1224              		.global	Error_Handler
 1225              		.syntax unified
 1226              		.thumb
 1227              		.thumb_func
 1229              	Error_Handler:
 1230              	.LFB77:
 485:Core/Src/main.c **** /* USER CODE END 4 */
 486:Core/Src/main.c **** 
 487:Core/Src/main.c **** /**
 488:Core/Src/main.c ****   * @brief  This function is executed in case of error occurrence.
 489:Core/Src/main.c ****   * @retval None
 490:Core/Src/main.c ****   */
 491:Core/Src/main.c **** void Error_Handler(void)
 492:Core/Src/main.c **** {
 1231              		.loc 1 492 1 is_stmt 1 view -0
 1232              		.cfi_startproc
 1233              		@ Volatile: function does not return.
 1234              		@ args = 0, pretend = 0, frame = 0
 1235              		@ frame_needed = 0, uses_anonymous_args = 0
 1236              		@ link register save eliminated.
 493:Core/Src/main.c ****   /* USER CODE BEGIN Error_Handler_Debug */
 494:Core/Src/main.c ****   /* User can add his own implementation to report the HAL error return state */
 495:Core/Src/main.c ****   __disable_irq();
 1237              		.loc 1 495 3 view .LVU336
 1238              	.LBB18:
 1239              	.LBI18:
 1240              		.file 2 "Drivers/CMSIS/Include/cmsis_gcc.h"
   1:Drivers/CMSIS/Include/cmsis_gcc.h **** /**************************************************************************//**
   2:Drivers/CMSIS/Include/cmsis_gcc.h ****  * @file     cmsis_gcc.h
   3:Drivers/CMSIS/Include/cmsis_gcc.h ****  * @brief    CMSIS compiler GCC header file
   4:Drivers/CMSIS/Include/cmsis_gcc.h ****  * @version  V5.0.4
   5:Drivers/CMSIS/Include/cmsis_gcc.h ****  * @date     09. April 2018
   6:Drivers/CMSIS/Include/cmsis_gcc.h ****  ******************************************************************************/
   7:Drivers/CMSIS/Include/cmsis_gcc.h **** /*
   8:Drivers/CMSIS/Include/cmsis_gcc.h ****  * Copyright (c) 2009-2018 Arm Limited. All rights reserved.
   9:Drivers/CMSIS/Include/cmsis_gcc.h ****  *
  10:Drivers/CMSIS/Include/cmsis_gcc.h ****  * SPDX-License-Identifier: Apache-2.0
  11:Drivers/CMSIS/Include/cmsis_gcc.h ****  *
  12:Drivers/CMSIS/Include/cmsis_gcc.h ****  * Licensed under the Apache License, Version 2.0 (the License); you may
  13:Drivers/CMSIS/Include/cmsis_gcc.h ****  * not use this file except in compliance with the License.
  14:Drivers/CMSIS/Include/cmsis_gcc.h ****  * You may obtain a copy of the License at
  15:Drivers/CMSIS/Include/cmsis_gcc.h ****  *
  16:Drivers/CMSIS/Include/cmsis_gcc.h ****  * www.apache.org/licenses/LICENSE-2.0
  17:Drivers/CMSIS/Include/cmsis_gcc.h ****  *
ARM GAS  C:\Users\XUCHEN~1\AppData\Local\Temp\ccIWF9s5.s 			page 36


  18:Drivers/CMSIS/Include/cmsis_gcc.h ****  * Unless required by applicable law or agreed to in writing, software
  19:Drivers/CMSIS/Include/cmsis_gcc.h ****  * distributed under the License is distributed on an AS IS BASIS, WITHOUT
  20:Drivers/CMSIS/Include/cmsis_gcc.h ****  * WARRANTIES OR CONDITIONS OF ANY KIND, either express or implied.
  21:Drivers/CMSIS/Include/cmsis_gcc.h ****  * See the License for the specific language governing permissions and
  22:Drivers/CMSIS/Include/cmsis_gcc.h ****  * limitations under the License.
  23:Drivers/CMSIS/Include/cmsis_gcc.h ****  */
  24:Drivers/CMSIS/Include/cmsis_gcc.h **** 
  25:Drivers/CMSIS/Include/cmsis_gcc.h **** #ifndef __CMSIS_GCC_H
  26:Drivers/CMSIS/Include/cmsis_gcc.h **** #define __CMSIS_GCC_H
  27:Drivers/CMSIS/Include/cmsis_gcc.h **** 
  28:Drivers/CMSIS/Include/cmsis_gcc.h **** /* ignore some GCC warnings */
  29:Drivers/CMSIS/Include/cmsis_gcc.h **** #pragma GCC diagnostic push
  30:Drivers/CMSIS/Include/cmsis_gcc.h **** #pragma GCC diagnostic ignored "-Wsign-conversion"
  31:Drivers/CMSIS/Include/cmsis_gcc.h **** #pragma GCC diagnostic ignored "-Wconversion"
  32:Drivers/CMSIS/Include/cmsis_gcc.h **** #pragma GCC diagnostic ignored "-Wunused-parameter"
  33:Drivers/CMSIS/Include/cmsis_gcc.h **** 
  34:Drivers/CMSIS/Include/cmsis_gcc.h **** /* Fallback for __has_builtin */
  35:Drivers/CMSIS/Include/cmsis_gcc.h **** #ifndef __has_builtin
  36:Drivers/CMSIS/Include/cmsis_gcc.h ****   #define __has_builtin(x) (0)
  37:Drivers/CMSIS/Include/cmsis_gcc.h **** #endif
  38:Drivers/CMSIS/Include/cmsis_gcc.h **** 
  39:Drivers/CMSIS/Include/cmsis_gcc.h **** /* CMSIS compiler specific defines */
  40:Drivers/CMSIS/Include/cmsis_gcc.h **** #ifndef   __ASM
  41:Drivers/CMSIS/Include/cmsis_gcc.h ****   #define __ASM                                  __asm
  42:Drivers/CMSIS/Include/cmsis_gcc.h **** #endif
  43:Drivers/CMSIS/Include/cmsis_gcc.h **** #ifndef   __INLINE
  44:Drivers/CMSIS/Include/cmsis_gcc.h ****   #define __INLINE                               inline
  45:Drivers/CMSIS/Include/cmsis_gcc.h **** #endif
  46:Drivers/CMSIS/Include/cmsis_gcc.h **** #ifndef   __STATIC_INLINE
  47:Drivers/CMSIS/Include/cmsis_gcc.h ****   #define __STATIC_INLINE                        static inline
  48:Drivers/CMSIS/Include/cmsis_gcc.h **** #endif
  49:Drivers/CMSIS/Include/cmsis_gcc.h **** #ifndef   __STATIC_FORCEINLINE                 
  50:Drivers/CMSIS/Include/cmsis_gcc.h ****   #define __STATIC_FORCEINLINE                   __attribute__((always_inline)) static inline
  51:Drivers/CMSIS/Include/cmsis_gcc.h **** #endif                                           
  52:Drivers/CMSIS/Include/cmsis_gcc.h **** #ifndef   __NO_RETURN
  53:Drivers/CMSIS/Include/cmsis_gcc.h ****   #define __NO_RETURN                            __attribute__((__noreturn__))
  54:Drivers/CMSIS/Include/cmsis_gcc.h **** #endif
  55:Drivers/CMSIS/Include/cmsis_gcc.h **** #ifndef   __USED
  56:Drivers/CMSIS/Include/cmsis_gcc.h ****   #define __USED                                 __attribute__((used))
  57:Drivers/CMSIS/Include/cmsis_gcc.h **** #endif
  58:Drivers/CMSIS/Include/cmsis_gcc.h **** #ifndef   __WEAK
  59:Drivers/CMSIS/Include/cmsis_gcc.h ****   #define __WEAK                                 __attribute__((weak))
  60:Drivers/CMSIS/Include/cmsis_gcc.h **** #endif
  61:Drivers/CMSIS/Include/cmsis_gcc.h **** #ifndef   __PACKED
  62:Drivers/CMSIS/Include/cmsis_gcc.h ****   #define __PACKED                               __attribute__((packed, aligned(1)))
  63:Drivers/CMSIS/Include/cmsis_gcc.h **** #endif
  64:Drivers/CMSIS/Include/cmsis_gcc.h **** #ifndef   __PACKED_STRUCT
  65:Drivers/CMSIS/Include/cmsis_gcc.h ****   #define __PACKED_STRUCT                        struct __attribute__((packed, aligned(1)))
  66:Drivers/CMSIS/Include/cmsis_gcc.h **** #endif
  67:Drivers/CMSIS/Include/cmsis_gcc.h **** #ifndef   __PACKED_UNION
  68:Drivers/CMSIS/Include/cmsis_gcc.h ****   #define __PACKED_UNION                         union __attribute__((packed, aligned(1)))
  69:Drivers/CMSIS/Include/cmsis_gcc.h **** #endif
  70:Drivers/CMSIS/Include/cmsis_gcc.h **** #ifndef   __UNALIGNED_UINT32        /* deprecated */
  71:Drivers/CMSIS/Include/cmsis_gcc.h ****   #pragma GCC diagnostic push
  72:Drivers/CMSIS/Include/cmsis_gcc.h ****   #pragma GCC diagnostic ignored "-Wpacked"
  73:Drivers/CMSIS/Include/cmsis_gcc.h ****   #pragma GCC diagnostic ignored "-Wattributes"
  74:Drivers/CMSIS/Include/cmsis_gcc.h ****   struct __attribute__((packed)) T_UINT32 { uint32_t v; };
ARM GAS  C:\Users\XUCHEN~1\AppData\Local\Temp\ccIWF9s5.s 			page 37


  75:Drivers/CMSIS/Include/cmsis_gcc.h ****   #pragma GCC diagnostic pop
  76:Drivers/CMSIS/Include/cmsis_gcc.h ****   #define __UNALIGNED_UINT32(x)                  (((struct T_UINT32 *)(x))->v)
  77:Drivers/CMSIS/Include/cmsis_gcc.h **** #endif
  78:Drivers/CMSIS/Include/cmsis_gcc.h **** #ifndef   __UNALIGNED_UINT16_WRITE
  79:Drivers/CMSIS/Include/cmsis_gcc.h ****   #pragma GCC diagnostic push
  80:Drivers/CMSIS/Include/cmsis_gcc.h ****   #pragma GCC diagnostic ignored "-Wpacked"
  81:Drivers/CMSIS/Include/cmsis_gcc.h ****   #pragma GCC diagnostic ignored "-Wattributes"
  82:Drivers/CMSIS/Include/cmsis_gcc.h ****   __PACKED_STRUCT T_UINT16_WRITE { uint16_t v; };
  83:Drivers/CMSIS/Include/cmsis_gcc.h ****   #pragma GCC diagnostic pop
  84:Drivers/CMSIS/Include/cmsis_gcc.h ****   #define __UNALIGNED_UINT16_WRITE(addr, val)    (void)((((struct T_UINT16_WRITE *)(void *)(addr))-
  85:Drivers/CMSIS/Include/cmsis_gcc.h **** #endif
  86:Drivers/CMSIS/Include/cmsis_gcc.h **** #ifndef   __UNALIGNED_UINT16_READ
  87:Drivers/CMSIS/Include/cmsis_gcc.h ****   #pragma GCC diagnostic push
  88:Drivers/CMSIS/Include/cmsis_gcc.h ****   #pragma GCC diagnostic ignored "-Wpacked"
  89:Drivers/CMSIS/Include/cmsis_gcc.h ****   #pragma GCC diagnostic ignored "-Wattributes"
  90:Drivers/CMSIS/Include/cmsis_gcc.h ****   __PACKED_STRUCT T_UINT16_READ { uint16_t v; };
  91:Drivers/CMSIS/Include/cmsis_gcc.h ****   #pragma GCC diagnostic pop
  92:Drivers/CMSIS/Include/cmsis_gcc.h ****   #define __UNALIGNED_UINT16_READ(addr)          (((const struct T_UINT16_READ *)(const void *)(add
  93:Drivers/CMSIS/Include/cmsis_gcc.h **** #endif
  94:Drivers/CMSIS/Include/cmsis_gcc.h **** #ifndef   __UNALIGNED_UINT32_WRITE
  95:Drivers/CMSIS/Include/cmsis_gcc.h ****   #pragma GCC diagnostic push
  96:Drivers/CMSIS/Include/cmsis_gcc.h ****   #pragma GCC diagnostic ignored "-Wpacked"
  97:Drivers/CMSIS/Include/cmsis_gcc.h ****   #pragma GCC diagnostic ignored "-Wattributes"
  98:Drivers/CMSIS/Include/cmsis_gcc.h ****   __PACKED_STRUCT T_UINT32_WRITE { uint32_t v; };
  99:Drivers/CMSIS/Include/cmsis_gcc.h ****   #pragma GCC diagnostic pop
 100:Drivers/CMSIS/Include/cmsis_gcc.h ****   #define __UNALIGNED_UINT32_WRITE(addr, val)    (void)((((struct T_UINT32_WRITE *)(void *)(addr))-
 101:Drivers/CMSIS/Include/cmsis_gcc.h **** #endif
 102:Drivers/CMSIS/Include/cmsis_gcc.h **** #ifndef   __UNALIGNED_UINT32_READ
 103:Drivers/CMSIS/Include/cmsis_gcc.h ****   #pragma GCC diagnostic push
 104:Drivers/CMSIS/Include/cmsis_gcc.h ****   #pragma GCC diagnostic ignored "-Wpacked"
 105:Drivers/CMSIS/Include/cmsis_gcc.h ****   #pragma GCC diagnostic ignored "-Wattributes"
 106:Drivers/CMSIS/Include/cmsis_gcc.h ****   __PACKED_STRUCT T_UINT32_READ { uint32_t v; };
 107:Drivers/CMSIS/Include/cmsis_gcc.h ****   #pragma GCC diagnostic pop
 108:Drivers/CMSIS/Include/cmsis_gcc.h ****   #define __UNALIGNED_UINT32_READ(addr)          (((const struct T_UINT32_READ *)(const void *)(add
 109:Drivers/CMSIS/Include/cmsis_gcc.h **** #endif
 110:Drivers/CMSIS/Include/cmsis_gcc.h **** #ifndef   __ALIGNED
 111:Drivers/CMSIS/Include/cmsis_gcc.h ****   #define __ALIGNED(x)                           __attribute__((aligned(x)))
 112:Drivers/CMSIS/Include/cmsis_gcc.h **** #endif
 113:Drivers/CMSIS/Include/cmsis_gcc.h **** #ifndef   __RESTRICT
 114:Drivers/CMSIS/Include/cmsis_gcc.h ****   #define __RESTRICT                             __restrict
 115:Drivers/CMSIS/Include/cmsis_gcc.h **** #endif
 116:Drivers/CMSIS/Include/cmsis_gcc.h **** 
 117:Drivers/CMSIS/Include/cmsis_gcc.h **** 
 118:Drivers/CMSIS/Include/cmsis_gcc.h **** /* ###########################  Core Function Access  ########################### */
 119:Drivers/CMSIS/Include/cmsis_gcc.h **** /** \ingroup  CMSIS_Core_FunctionInterface
 120:Drivers/CMSIS/Include/cmsis_gcc.h ****     \defgroup CMSIS_Core_RegAccFunctions CMSIS Core Register Access Functions
 121:Drivers/CMSIS/Include/cmsis_gcc.h ****   @{
 122:Drivers/CMSIS/Include/cmsis_gcc.h ****  */
 123:Drivers/CMSIS/Include/cmsis_gcc.h **** 
 124:Drivers/CMSIS/Include/cmsis_gcc.h **** /**
 125:Drivers/CMSIS/Include/cmsis_gcc.h ****   \brief   Enable IRQ Interrupts
 126:Drivers/CMSIS/Include/cmsis_gcc.h ****   \details Enables IRQ interrupts by clearing the I-bit in the CPSR.
 127:Drivers/CMSIS/Include/cmsis_gcc.h ****            Can only be executed in Privileged modes.
 128:Drivers/CMSIS/Include/cmsis_gcc.h ****  */
 129:Drivers/CMSIS/Include/cmsis_gcc.h **** __STATIC_FORCEINLINE void __enable_irq(void)
 130:Drivers/CMSIS/Include/cmsis_gcc.h **** {
 131:Drivers/CMSIS/Include/cmsis_gcc.h ****   __ASM volatile ("cpsie i" : : : "memory");
ARM GAS  C:\Users\XUCHEN~1\AppData\Local\Temp\ccIWF9s5.s 			page 38


 132:Drivers/CMSIS/Include/cmsis_gcc.h **** }
 133:Drivers/CMSIS/Include/cmsis_gcc.h **** 
 134:Drivers/CMSIS/Include/cmsis_gcc.h **** 
 135:Drivers/CMSIS/Include/cmsis_gcc.h **** /**
 136:Drivers/CMSIS/Include/cmsis_gcc.h ****   \brief   Disable IRQ Interrupts
 137:Drivers/CMSIS/Include/cmsis_gcc.h ****   \details Disables IRQ interrupts by setting the I-bit in the CPSR.
 138:Drivers/CMSIS/Include/cmsis_gcc.h ****            Can only be executed in Privileged modes.
 139:Drivers/CMSIS/Include/cmsis_gcc.h ****  */
 140:Drivers/CMSIS/Include/cmsis_gcc.h **** __STATIC_FORCEINLINE void __disable_irq(void)
 1241              		.loc 2 140 27 view .LVU337
 1242              	.LBB19:
 141:Drivers/CMSIS/Include/cmsis_gcc.h **** {
 142:Drivers/CMSIS/Include/cmsis_gcc.h ****   __ASM volatile ("cpsid i" : : : "memory");
 1243              		.loc 2 142 3 view .LVU338
 1244              		.syntax unified
 1245              	@ 142 "Drivers/CMSIS/Include/cmsis_gcc.h" 1
 1246 0000 72B6     		cpsid i
 1247              	@ 0 "" 2
 1248              		.thumb
 1249              		.syntax unified
 1250              	.L91:
 1251              	.LBE19:
 1252              	.LBE18:
 496:Core/Src/main.c ****   while (1)
 1253              		.loc 1 496 3 view .LVU339
 497:Core/Src/main.c ****   {
 498:Core/Src/main.c ****   }
 1254              		.loc 1 498 3 view .LVU340
 496:Core/Src/main.c ****   while (1)
 1255              		.loc 1 496 9 view .LVU341
 1256 0002 FEE7     		b	.L91
 1257              		.cfi_endproc
 1258              	.LFE77:
 1260              		.section	.text.SystemClock_Config,"ax",%progbits
 1261              		.align	1
 1262              		.global	SystemClock_Config
 1263              		.syntax unified
 1264              		.thumb
 1265              		.thumb_func
 1267              	SystemClock_Config:
 1268              	.LFB70:
 176:Core/Src/main.c ****   RCC_OscInitTypeDef RCC_OscInitStruct = {0};
 1269              		.loc 1 176 1 view -0
 1270              		.cfi_startproc
 1271              		@ args = 0, pretend = 0, frame = 64
 1272              		@ frame_needed = 0, uses_anonymous_args = 0
 1273 0000 10B5     		push	{r4, lr}
 1274              	.LCFI9:
 1275              		.cfi_def_cfa_offset 8
 1276              		.cfi_offset 4, -8
 1277              		.cfi_offset 14, -4
 1278 0002 90B0     		sub	sp, sp, #64
 1279              	.LCFI10:
 1280              		.cfi_def_cfa_offset 72
 177:Core/Src/main.c ****   RCC_ClkInitTypeDef RCC_ClkInitStruct = {0};
 1281              		.loc 1 177 3 view .LVU343
 177:Core/Src/main.c ****   RCC_ClkInitTypeDef RCC_ClkInitStruct = {0};
ARM GAS  C:\Users\XUCHEN~1\AppData\Local\Temp\ccIWF9s5.s 			page 39


 1282              		.loc 1 177 22 is_stmt 0 view .LVU344
 1283 0004 06AC     		add	r4, sp, #24
 1284 0006 2822     		movs	r2, #40
 1285 0008 0021     		movs	r1, #0
 1286 000a 2046     		mov	r0, r4
 1287 000c FFF7FEFF 		bl	memset
 1288              	.LVL139:
 178:Core/Src/main.c **** 
 1289              		.loc 1 178 3 is_stmt 1 view .LVU345
 178:Core/Src/main.c **** 
 1290              		.loc 1 178 22 is_stmt 0 view .LVU346
 1291 0010 0023     		movs	r3, #0
 1292 0012 0193     		str	r3, [sp, #4]
 1293 0014 0293     		str	r3, [sp, #8]
 1294 0016 0393     		str	r3, [sp, #12]
 1295 0018 0493     		str	r3, [sp, #16]
 1296 001a 0593     		str	r3, [sp, #20]
 180:Core/Src/main.c ****   RCC_OscInitStruct.HSEState = RCC_HSE_ON;
 1297              		.loc 1 180 3 is_stmt 1 view .LVU347
 180:Core/Src/main.c ****   RCC_OscInitStruct.HSEState = RCC_HSE_ON;
 1298              		.loc 1 180 36 is_stmt 0 view .LVU348
 1299 001c 0122     		movs	r2, #1
 1300 001e 0692     		str	r2, [sp, #24]
 181:Core/Src/main.c ****   RCC_OscInitStruct.HSEPredivValue = RCC_HSE_PREDIV_DIV1;
 1301              		.loc 1 181 3 is_stmt 1 view .LVU349
 181:Core/Src/main.c ****   RCC_OscInitStruct.HSEPredivValue = RCC_HSE_PREDIV_DIV1;
 1302              		.loc 1 181 30 is_stmt 0 view .LVU350
 1303 0020 4FF48033 		mov	r3, #65536
 1304 0024 0793     		str	r3, [sp, #28]
 182:Core/Src/main.c ****   RCC_OscInitStruct.HSIState = RCC_HSI_ON;
 1305              		.loc 1 182 3 is_stmt 1 view .LVU351
 183:Core/Src/main.c ****   RCC_OscInitStruct.PLL.PLLState = RCC_PLL_ON;
 1306              		.loc 1 183 3 view .LVU352
 183:Core/Src/main.c ****   RCC_OscInitStruct.PLL.PLLState = RCC_PLL_ON;
 1307              		.loc 1 183 30 is_stmt 0 view .LVU353
 1308 0026 0A92     		str	r2, [sp, #40]
 184:Core/Src/main.c ****   RCC_OscInitStruct.PLL.PLLSource = RCC_PLLSOURCE_HSE;
 1309              		.loc 1 184 3 is_stmt 1 view .LVU354
 184:Core/Src/main.c ****   RCC_OscInitStruct.PLL.PLLSource = RCC_PLLSOURCE_HSE;
 1310              		.loc 1 184 34 is_stmt 0 view .LVU355
 1311 0028 0222     		movs	r2, #2
 1312 002a 0D92     		str	r2, [sp, #52]
 185:Core/Src/main.c ****   RCC_OscInitStruct.PLL.PLLMUL = RCC_PLL_MUL9;
 1313              		.loc 1 185 3 is_stmt 1 view .LVU356
 185:Core/Src/main.c ****   RCC_OscInitStruct.PLL.PLLMUL = RCC_PLL_MUL9;
 1314              		.loc 1 185 35 is_stmt 0 view .LVU357
 1315 002c 0E93     		str	r3, [sp, #56]
 186:Core/Src/main.c ****   if (HAL_RCC_OscConfig(&RCC_OscInitStruct) != HAL_OK)
 1316              		.loc 1 186 3 is_stmt 1 view .LVU358
 186:Core/Src/main.c ****   if (HAL_RCC_OscConfig(&RCC_OscInitStruct) != HAL_OK)
 1317              		.loc 1 186 32 is_stmt 0 view .LVU359
 1318 002e 4FF4E013 		mov	r3, #1835008
 1319 0032 0F93     		str	r3, [sp, #60]
 187:Core/Src/main.c ****   {
 1320              		.loc 1 187 3 is_stmt 1 view .LVU360
 187:Core/Src/main.c ****   {
 1321              		.loc 1 187 7 is_stmt 0 view .LVU361
ARM GAS  C:\Users\XUCHEN~1\AppData\Local\Temp\ccIWF9s5.s 			page 40


 1322 0034 2046     		mov	r0, r4
 1323 0036 FFF7FEFF 		bl	HAL_RCC_OscConfig
 1324              	.LVL140:
 187:Core/Src/main.c ****   {
 1325              		.loc 1 187 6 discriminator 1 view .LVU362
 1326 003a 70B9     		cbnz	r0, .L96
 192:Core/Src/main.c ****                               |RCC_CLOCKTYPE_PCLK1|RCC_CLOCKTYPE_PCLK2;
 1327              		.loc 1 192 3 is_stmt 1 view .LVU363
 192:Core/Src/main.c ****                               |RCC_CLOCKTYPE_PCLK1|RCC_CLOCKTYPE_PCLK2;
 1328              		.loc 1 192 31 is_stmt 0 view .LVU364
 1329 003c 0F23     		movs	r3, #15
 1330 003e 0193     		str	r3, [sp, #4]
 194:Core/Src/main.c ****   RCC_ClkInitStruct.AHBCLKDivider = RCC_SYSCLK_DIV1;
 1331              		.loc 1 194 3 is_stmt 1 view .LVU365
 194:Core/Src/main.c ****   RCC_ClkInitStruct.AHBCLKDivider = RCC_SYSCLK_DIV1;
 1332              		.loc 1 194 34 is_stmt 0 view .LVU366
 1333 0040 0221     		movs	r1, #2
 1334 0042 0291     		str	r1, [sp, #8]
 195:Core/Src/main.c ****   RCC_ClkInitStruct.APB1CLKDivider = RCC_HCLK_DIV2;
 1335              		.loc 1 195 3 is_stmt 1 view .LVU367
 195:Core/Src/main.c ****   RCC_ClkInitStruct.APB1CLKDivider = RCC_HCLK_DIV2;
 1336              		.loc 1 195 35 is_stmt 0 view .LVU368
 1337 0044 0390     		str	r0, [sp, #12]
 196:Core/Src/main.c ****   RCC_ClkInitStruct.APB2CLKDivider = RCC_HCLK_DIV1;
 1338              		.loc 1 196 3 is_stmt 1 view .LVU369
 196:Core/Src/main.c ****   RCC_ClkInitStruct.APB2CLKDivider = RCC_HCLK_DIV1;
 1339              		.loc 1 196 36 is_stmt 0 view .LVU370
 1340 0046 4FF48062 		mov	r2, #1024
 1341 004a 0492     		str	r2, [sp, #16]
 197:Core/Src/main.c **** 
 1342              		.loc 1 197 3 is_stmt 1 view .LVU371
 197:Core/Src/main.c **** 
 1343              		.loc 1 197 36 is_stmt 0 view .LVU372
 1344 004c 0590     		str	r0, [sp, #20]
 199:Core/Src/main.c ****   {
 1345              		.loc 1 199 3 is_stmt 1 view .LVU373
 199:Core/Src/main.c ****   {
 1346              		.loc 1 199 7 is_stmt 0 view .LVU374
 1347 004e 01A8     		add	r0, sp, #4
 1348 0050 FFF7FEFF 		bl	HAL_RCC_ClockConfig
 1349              	.LVL141:
 199:Core/Src/main.c ****   {
 1350              		.loc 1 199 6 discriminator 1 view .LVU375
 1351 0054 18B9     		cbnz	r0, .L97
 203:Core/Src/main.c **** 
 1352              		.loc 1 203 1 view .LVU376
 1353 0056 10B0     		add	sp, sp, #64
 1354              	.LCFI11:
 1355              		.cfi_remember_state
 1356              		.cfi_def_cfa_offset 8
 1357              		@ sp needed
 1358 0058 10BD     		pop	{r4, pc}
 1359              	.L96:
 1360              	.LCFI12:
 1361              		.cfi_restore_state
 189:Core/Src/main.c ****   }
 1362              		.loc 1 189 5 is_stmt 1 view .LVU377
ARM GAS  C:\Users\XUCHEN~1\AppData\Local\Temp\ccIWF9s5.s 			page 41


 1363 005a FFF7FEFF 		bl	Error_Handler
 1364              	.LVL142:
 1365              	.L97:
 201:Core/Src/main.c ****   }
 1366              		.loc 1 201 5 view .LVU378
 1367 005e FFF7FEFF 		bl	Error_Handler
 1368              	.LVL143:
 1369              		.cfi_endproc
 1370              	.LFE70:
 1372              		.section	.rodata.main.str1.4,"aMS",%progbits,1
 1373              		.align	2
 1374              	.LC8:
 1375 0000 53797374 		.ascii	"System Ready!\000"
 1375      656D2052 
 1375      65616479 
 1375      2100
 1376              		.section	.text.main,"ax",%progbits
 1377              		.align	1
 1378              		.global	main
 1379              		.syntax unified
 1380              		.thumb
 1381              		.thumb_func
 1383              	main:
 1384              	.LFB69:
 125:Core/Src/main.c ****   /* USER CODE BEGIN 1 */
 1385              		.loc 1 125 1 view -0
 1386              		.cfi_startproc
 1387              		@ Volatile: function does not return.
 1388              		@ args = 0, pretend = 0, frame = 0
 1389              		@ frame_needed = 0, uses_anonymous_args = 0
 1390 0000 08B5     		push	{r3, lr}
 1391              	.LCFI13:
 1392              		.cfi_def_cfa_offset 8
 1393              		.cfi_offset 3, -8
 1394              		.cfi_offset 14, -4
 130:Core/Src/main.c ****   SystemClock_Config();
 1395              		.loc 1 130 3 view .LVU380
 1396 0002 FFF7FEFF 		bl	HAL_Init
 1397              	.LVL144:
 131:Core/Src/main.c **** 
 1398              		.loc 1 131 3 view .LVU381
 1399 0006 FFF7FEFF 		bl	SystemClock_Config
 1400              	.LVL145:
 133:Core/Src/main.c ****   MX_I2C1_Init();
 1401              		.loc 1 133 3 view .LVU382
 1402 000a FFF7FEFF 		bl	MX_GPIO_Init
 1403              	.LVL146:
 134:Core/Src/main.c ****   MX_I2C2_Init();
 1404              		.loc 1 134 3 view .LVU383
 1405 000e FFF7FEFF 		bl	MX_I2C1_Init
 1406              	.LVL147:
 135:Core/Src/main.c ****   MX_TIM1_Init();
 1407              		.loc 1 135 3 view .LVU384
 1408 0012 FFF7FEFF 		bl	MX_I2C2_Init
 1409              	.LVL148:
 136:Core/Src/main.c ****   MX_TIM2_Init();
 1410              		.loc 1 136 3 view .LVU385
ARM GAS  C:\Users\XUCHEN~1\AppData\Local\Temp\ccIWF9s5.s 			page 42


 1411 0016 FFF7FEFF 		bl	MX_TIM1_Init
 1412              	.LVL149:
 137:Core/Src/main.c ****   MX_TIM3_Init();
 1413              		.loc 1 137 3 view .LVU386
 1414 001a FFF7FEFF 		bl	MX_TIM2_Init
 1415              	.LVL150:
 138:Core/Src/main.c ****   MX_TIM4_Init();
 1416              		.loc 1 138 3 view .LVU387
 1417 001e FFF7FEFF 		bl	MX_TIM3_Init
 1418              	.LVL151:
 139:Core/Src/main.c ****   MX_TIM8_Init();
 1419              		.loc 1 139 3 view .LVU388
 1420 0022 FFF7FEFF 		bl	MX_TIM4_Init
 1421              	.LVL152:
 140:Core/Src/main.c ****   MX_USART1_UART_Init();
 1422              		.loc 1 140 3 view .LVU389
 1423 0026 FFF7FEFF 		bl	MX_TIM8_Init
 1424              	.LVL153:
 141:Core/Src/main.c ****   MX_USART2_UART_Init();
 1425              		.loc 1 141 3 view .LVU390
 1426 002a FFF7FEFF 		bl	MX_USART1_UART_Init
 1427              	.LVL154:
 142:Core/Src/main.c ****   MX_USART3_UART_Init();
 1428              		.loc 1 142 3 view .LVU391
 1429 002e FFF7FEFF 		bl	MX_USART2_UART_Init
 1430              	.LVL155:
 143:Core/Src/main.c **** 
 1431              		.loc 1 143 3 view .LVU392
 1432 0032 FFF7FEFF 		bl	MX_USART3_UART_Init
 1433              	.LVL156:
 146:Core/Src/main.c ****   HAL_TIM_PWM_Start(&htim8, TIM_CHANNEL_2);
 1434              		.loc 1 146 3 view .LVU393
 1435 0036 104C     		ldr	r4, .L101
 1436 0038 0021     		movs	r1, #0
 1437 003a 2046     		mov	r0, r4
 1438 003c FFF7FEFF 		bl	HAL_TIM_PWM_Start
 1439              	.LVL157:
 147:Core/Src/main.c ****   Encoder_Init();
 1440              		.loc 1 147 3 view .LVU394
 1441 0040 0421     		movs	r1, #4
 1442 0042 2046     		mov	r0, r4
 1443 0044 FFF7FEFF 		bl	HAL_TIM_PWM_Start
 1444              	.LVL158:
 148:Core/Src/main.c ****   OLED_Init();
 1445              		.loc 1 148 3 view .LVU395
 1446 0048 FFF7FEFF 		bl	Encoder_Init
 1447              	.LVL159:
 149:Core/Src/main.c ****   OLED_Clear();
 1448              		.loc 1 149 3 view .LVU396
 1449 004c FFF7FEFF 		bl	OLED_Init
 1450              	.LVL160:
 150:Core/Src/main.c ****   Arm_Init();
 1451              		.loc 1 150 3 view .LVU397
 1452 0050 FFF7FEFF 		bl	OLED_Clear
 1453              	.LVL161:
 151:Core/Src/main.c ****   Arm_SetDoneCallback(Arm_Done_Callback);
 1454              		.loc 1 151 3 view .LVU398
ARM GAS  C:\Users\XUCHEN~1\AppData\Local\Temp\ccIWF9s5.s 			page 43


 1455 0054 FFF7FEFF 		bl	Arm_Init
 1456              	.LVL162:
 152:Core/Src/main.c ****   UART_Init();            // żŞĆô´®żÚ˝ÓĘŐÖĐ¶Ď
 1457              		.loc 1 152 3 view .LVU399
 1458 0058 0848     		ldr	r0, .L101+4
 1459 005a FFF7FEFF 		bl	Arm_SetDoneCallback
 1460              	.LVL163:
 153:Core/Src/main.c **** 
 1461              		.loc 1 153 3 view .LVU400
 1462 005e FFF7FEFF 		bl	UART_Init
 1463              	.LVL164:
 155:Core/Src/main.c ****   /* USER CODE END 2 */
 1464              		.loc 1 155 3 view .LVU401
 1465 0062 074A     		ldr	r2, .L101+8
 1466 0064 0021     		movs	r1, #0
 1467 0066 0846     		mov	r0, r1
 1468 0068 FFF7FEFF 		bl	OLED_ShowString
 1469              	.LVL165:
 1470              	.L99:
 160:Core/Src/main.c ****   {
 1471              		.loc 1 160 3 view .LVU402
 162:Core/Src/main.c ****     HAL_Delay(10);
 1472              		.loc 1 162 5 view .LVU403
 1473 006c FFF7FEFF 		bl	State_Machine
 1474              	.LVL166:
 163:Core/Src/main.c ****     /* USER CODE END WHILE */
 1475              		.loc 1 163 5 discriminator 2 view .LVU404
 1476 0070 0A20     		movs	r0, #10
 1477 0072 FFF7FEFF 		bl	HAL_Delay
 1478              	.LVL167:
 160:Core/Src/main.c ****   {
 1479              		.loc 1 160 9 view .LVU405
 1480 0076 F9E7     		b	.L99
 1481              	.L102:
 1482              		.align	2
 1483              	.L101:
 1484 0078 00000000 		.word	htim8
 1485 007c 00000000 		.word	Arm_Done_Callback
 1486 0080 00000000 		.word	.LC8
 1487              		.cfi_endproc
 1488              	.LFE69:
 1490              		.global	g_unload_count
 1491              		.section	.bss.g_unload_count,"aw",%nobits
 1494              	g_unload_count:
 1495 0000 00       		.space	1
 1496              		.global	g_order_index
 1497              		.section	.bss.g_order_index,"aw",%nobits
 1500              	g_order_index:
 1501 0000 00       		.space	1
 1502              		.global	g_pick_index
 1503              		.section	.bss.g_pick_index,"aw",%nobits
 1506              	g_pick_index:
 1507 0000 00       		.space	1
 1508              		.global	g_unload_order
 1509              		.section	.data.g_unload_order,"aw"
 1510              		.align	2
 1513              	g_unload_order:
ARM GAS  C:\Users\XUCHEN~1\AppData\Local\Temp\ccIWF9s5.s 			page 44


 1514 0000 41424300 		.ascii	"ABC\000"
 1515              		.global	g_vision_done_event
 1516              		.section	.bss.g_vision_done_event,"aw",%nobits
 1519              	g_vision_done_event:
 1520 0000 00       		.space	1
 1521              		.global	g_arm_done_event
 1522              		.section	.bss.g_arm_done_event,"aw",%nobits
 1525              	g_arm_done_event:
 1526 0000 00       		.space	1
 1527              		.global	g_target_enc
 1528              		.section	.bss.g_target_enc,"aw",%nobits
 1529              		.align	2
 1532              	g_target_enc:
 1533 0000 00000000 		.space	4
 1534              		.global	g_car_dir
 1535              		.section	.bss.g_car_dir,"aw",%nobits
 1538              	g_car_dir:
 1539 0000 00       		.space	1
 1540              		.global	g_state
 1541              		.section	.bss.g_state,"aw",%nobits
 1544              	g_state:
 1545 0000 00       		.space	1
 1546              		.text
 1547              	.Letext0:
 1548              		.file 3 "C:/arm-gnu-toolchain-15.2.rel1-mingw-w64-x86_64-arm-none-eabi/arm-none-eabi/include/machi
 1549              		.file 4 "C:/arm-gnu-toolchain-15.2.rel1-mingw-w64-x86_64-arm-none-eabi/arm-none-eabi/include/sys/_
 1550              		.file 5 "Drivers/CMSIS/Device/ST/STM32F1xx/Include/stm32f103xe.h"
 1551              		.file 6 "Drivers/STM32F1xx_HAL_Driver/Inc/stm32f1xx_hal_def.h"
 1552              		.file 7 "Drivers/STM32F1xx_HAL_Driver/Inc/stm32f1xx_hal_rcc.h"
 1553              		.file 8 "Drivers/STM32F1xx_HAL_Driver/Inc/stm32f1xx_hal_rcc_ex.h"
 1554              		.file 9 "Drivers/STM32F1xx_HAL_Driver/Inc/stm32f1xx_hal_dma.h"
 1555              		.file 10 "Drivers/STM32F1xx_HAL_Driver/Inc/stm32f1xx_hal_tim.h"
 1556              		.file 11 "Core/Inc/arm.h"
 1557              		.file 12 "Core/Inc/tim.h"
 1558              		.file 13 "Core/Inc/uart.h"
 1559              		.file 14 "Core/Inc/motor.h"
 1560              		.file 15 "Core/Inc/track.h"
 1561              		.file 16 "Core/Inc/encoder.h"
 1562              		.file 17 "Core/Inc/oled.h"
 1563              		.file 18 "C:/arm-gnu-toolchain-15.2.rel1-mingw-w64-x86_64-arm-none-eabi/arm-none-eabi/include/stri
 1564              		.file 19 "C:/arm-gnu-toolchain-15.2.rel1-mingw-w64-x86_64-arm-none-eabi/arm-none-eabi/include/stdi
 1565              		.file 20 "Core/Inc/button.h"
 1566              		.file 21 "Drivers/STM32F1xx_HAL_Driver/Inc/stm32f1xx_hal.h"
 1567              		.file 22 "Core/Inc/usart.h"
 1568              		.file 23 "Core/Inc/i2c.h"
 1569              		.file 24 "Core/Inc/gpio.h"
 1570              		.file 25 "<built-in>"
ARM GAS  C:\Users\XUCHEN~1\AppData\Local\Temp\ccIWF9s5.s 			page 45

