ARM GAS  C:\Users\XUCHEN~1\AppData\Local\Temp\ccdRa9Hh.s 			page 1


   1              		.cpu cortex-m3
   2              		.arch armv7-m
   3              		.fpu softvfp
   4              		.eabi_attribute 20, 1
   5              		.eabi_attribute 21, 1
   6              		.eabi_attribute 23, 3
   7              		.eabi_attribute 24, 1
   8              		.eabi_attribute 25, 1
   9              		.eabi_attribute 26, 1
  10              		.eabi_attribute 30, 1
  11              		.eabi_attribute 34, 1
  12              		.eabi_attribute 18, 4
  13              		.file	"track.c"
  14              		.text
  15              	.Ltext0:
  16              		.cfi_sections	.debug_frame
  17              		.file 1 "Core/Src/track.c"
  18              		.section	.text.Track_Sensor_Read,"ax",%progbits
  19              		.align	1
  20              		.global	Track_Sensor_Read
  21              		.syntax unified
  22              		.thumb
  23              		.thumb_func
  25              	Track_Sensor_Read:
  26              	.LFB65:
   1:Core/Src/track.c **** #include "track.h"
   2:Core/Src/track.c **** 
   3:Core/Src/track.c **** static uint8_t g_track_raw = 0;
   4:Core/Src/track.c **** static int8_t  g_track_error = 0;
   5:Core/Src/track.c **** static float   g_track_pid_out = 0;
   6:Core/Src/track.c **** static int8_t  g_track_error_last = 0;
   7:Core/Src/track.c **** static float   g_track_integral = 0;
   8:Core/Src/track.c **** 
   9:Core/Src/track.c **** #define TRACK_READ()  (\
  10:Core/Src/track.c ****   (HAL_GPIO_ReadPin(GPIOB, GPIO_PIN_15) << 0) |\
  11:Core/Src/track.c ****   (HAL_GPIO_ReadPin(GPIOB, GPIO_PIN_14) << 1) |\
  12:Core/Src/track.c ****   (HAL_GPIO_ReadPin(GPIOB, GPIO_PIN_13) << 2) |\
  13:Core/Src/track.c ****   (HAL_GPIO_ReadPin(GPIOB, GPIO_PIN_12) << 3) |\
  14:Core/Src/track.c ****   (HAL_GPIO_ReadPin(GPIOB, GPIO_PIN_4)  << 4) |\
  15:Core/Src/track.c ****   (HAL_GPIO_ReadPin(GPIOB, GPIO_PIN_5)  << 5) |\
  16:Core/Src/track.c ****   (HAL_GPIO_ReadPin(GPIOB, GPIO_PIN_6)  << 6) |\
  17:Core/Src/track.c ****   (HAL_GPIO_ReadPin(GPIOB, GPIO_PIN_7)  << 7) )
  18:Core/Src/track.c **** 
  19:Core/Src/track.c **** void Track_Sensor_Read(void)
  20:Core/Src/track.c **** {
  27              		.loc 1 20 1 view -0
  28              		.cfi_startproc
  29              		@ args = 0, pretend = 0, frame = 0
  30              		@ frame_needed = 0, uses_anonymous_args = 0
  31 0000 38B5     		push	{r3, r4, r5, lr}
  32              	.LCFI0:
  33              		.cfi_def_cfa_offset 16
  34              		.cfi_offset 3, -16
  35              		.cfi_offset 4, -12
  36              		.cfi_offset 5, -8
  37              		.cfi_offset 14, -4
  21:Core/Src/track.c ****   g_track_raw = TRACK_READ();
ARM GAS  C:\Users\XUCHEN~1\AppData\Local\Temp\ccdRa9Hh.s 			page 2


  38              		.loc 1 21 3 view .LVU1
  39              		.loc 1 21 17 is_stmt 0 view .LVU2
  40 0002 3D4D     		ldr	r5, .L18
  41 0004 4FF40041 		mov	r1, #32768
  42 0008 2846     		mov	r0, r5
  43 000a FFF7FEFF 		bl	HAL_GPIO_ReadPin
  44              	.LVL0:
  45              		.loc 1 21 17 discriminator 1 view .LVU3
  46 000e 44B2     		sxtb	r4, r0
  47 0010 4FF48041 		mov	r1, #16384
  48 0014 2846     		mov	r0, r5
  49 0016 FFF7FEFF 		bl	HAL_GPIO_ReadPin
  50              	.LVL1:
  51              		.loc 1 21 17 discriminator 2 view .LVU4
  52 001a 44EA4004 		orr	r4, r4, r0, lsl #1
  53 001e 64B2     		sxtb	r4, r4
  54 0020 4FF40051 		mov	r1, #8192
  55 0024 2846     		mov	r0, r5
  56 0026 FFF7FEFF 		bl	HAL_GPIO_ReadPin
  57              	.LVL2:
  58              		.loc 1 21 17 discriminator 3 view .LVU5
  59 002a 44EA8004 		orr	r4, r4, r0, lsl #2
  60 002e 64B2     		sxtb	r4, r4
  61 0030 4FF48051 		mov	r1, #4096
  62 0034 2846     		mov	r0, r5
  63 0036 FFF7FEFF 		bl	HAL_GPIO_ReadPin
  64              	.LVL3:
  65              		.loc 1 21 17 discriminator 4 view .LVU6
  66 003a 44EAC004 		orr	r4, r4, r0, lsl #3
  67 003e 64B2     		sxtb	r4, r4
  68 0040 1021     		movs	r1, #16
  69 0042 2846     		mov	r0, r5
  70 0044 FFF7FEFF 		bl	HAL_GPIO_ReadPin
  71              	.LVL4:
  72              		.loc 1 21 17 discriminator 5 view .LVU7
  73 0048 44EA0014 		orr	r4, r4, r0, lsl #4
  74 004c 64B2     		sxtb	r4, r4
  75 004e 2021     		movs	r1, #32
  76 0050 2846     		mov	r0, r5
  77 0052 FFF7FEFF 		bl	HAL_GPIO_ReadPin
  78              	.LVL5:
  79              		.loc 1 21 17 discriminator 6 view .LVU8
  80 0056 44EA4014 		orr	r4, r4, r0, lsl #5
  81 005a 64B2     		sxtb	r4, r4
  82 005c 4021     		movs	r1, #64
  83 005e 2846     		mov	r0, r5
  84 0060 FFF7FEFF 		bl	HAL_GPIO_ReadPin
  85              	.LVL6:
  86              		.loc 1 21 17 discriminator 7 view .LVU9
  87 0064 44EA8014 		orr	r4, r4, r0, lsl #6
  88 0068 64B2     		sxtb	r4, r4
  89 006a 8021     		movs	r1, #128
  90 006c 2846     		mov	r0, r5
  91 006e FFF7FEFF 		bl	HAL_GPIO_ReadPin
  92              	.LVL7:
  93              		.loc 1 21 17 discriminator 8 view .LVU10
  94 0072 44EAC010 		orr	r0, r4, r0, lsl #7
ARM GAS  C:\Users\XUCHEN~1\AppData\Local\Temp\ccdRa9Hh.s 			page 3


  95 0076 C0B2     		uxtb	r0, r0
  96              		.loc 1 21 15 discriminator 8 view .LVU11
  97 0078 204B     		ldr	r3, .L18+4
  98 007a 1870     		strb	r0, [r3]
  22:Core/Src/track.c ****   switch(g_track_raw)
  99              		.loc 1 22 3 is_stmt 1 view .LVU12
 100 007c 1028     		cmp	r0, #16
 101 007e 23D0     		beq	.L2
 102 0080 10D8     		bhi	.L3
 103 0082 0428     		cmp	r0, #4
 104 0084 1CD0     		beq	.L4
 105 0086 07D8     		bhi	.L5
 106 0088 0128     		cmp	r0, #1
 107 008a 15D0     		beq	.L6
 108 008c 0228     		cmp	r0, #2
 109 008e 27D1     		bne	.L8
  23:Core/Src/track.c ****   {
  24:Core/Src/track.c ****         case 0x01: g_track_error = -7; break;
  25:Core/Src/track.c ****         case 0x02: g_track_error = -5; break;
 110              		.loc 1 25 20 view .LVU13
 111              		.loc 1 25 34 is_stmt 0 view .LVU14
 112 0090 1B4B     		ldr	r3, .L18+8
 113 0092 FB22     		movs	r2, #251
 114 0094 1A70     		strb	r2, [r3]
 115              		.loc 1 25 40 is_stmt 1 view .LVU15
 116 0096 12E0     		b	.L1
 117              	.L5:
  22:Core/Src/track.c ****   switch(g_track_raw)
 118              		.loc 1 22 3 is_stmt 0 view .LVU16
 119 0098 0828     		cmp	r0, #8
 120 009a 21D1     		bne	.L8
  26:Core/Src/track.c ****         case 0x04: g_track_error = -3; break;
  27:Core/Src/track.c ****         case 0x08: g_track_error = -1; break;
 121              		.loc 1 27 20 is_stmt 1 view .LVU17
 122              		.loc 1 27 34 is_stmt 0 view .LVU18
 123 009c 184B     		ldr	r3, .L18+8
 124 009e FF22     		movs	r2, #255
 125 00a0 1A70     		strb	r2, [r3]
 126              		.loc 1 27 40 is_stmt 1 view .LVU19
 127 00a2 0CE0     		b	.L1
 128              	.L3:
  22:Core/Src/track.c ****   {
 129              		.loc 1 22 3 is_stmt 0 view .LVU20
 130 00a4 4028     		cmp	r0, #64
 131 00a6 13D0     		beq	.L10
 132 00a8 8028     		cmp	r0, #128
 133 00aa 15D0     		beq	.L11
 134 00ac 2028     		cmp	r0, #32
 135 00ae 17D1     		bne	.L8
  28:Core/Src/track.c ****         case 0x10: g_track_error = 1;  break;
  29:Core/Src/track.c ****         case 0x20: g_track_error = 3;  break;
 136              		.loc 1 29 20 is_stmt 1 view .LVU21
 137              		.loc 1 29 34 is_stmt 0 view .LVU22
 138 00b0 134B     		ldr	r3, .L18+8
 139 00b2 0322     		movs	r2, #3
 140 00b4 1A70     		strb	r2, [r3]
 141              		.loc 1 29 40 is_stmt 1 view .LVU23
ARM GAS  C:\Users\XUCHEN~1\AppData\Local\Temp\ccdRa9Hh.s 			page 4


 142 00b6 02E0     		b	.L1
 143              	.L6:
  24:Core/Src/track.c ****         case 0x02: g_track_error = -5; break;
 144              		.loc 1 24 20 view .LVU24
  24:Core/Src/track.c ****         case 0x02: g_track_error = -5; break;
 145              		.loc 1 24 34 is_stmt 0 view .LVU25
 146 00b8 114B     		ldr	r3, .L18+8
 147 00ba F922     		movs	r2, #249
 148 00bc 1A70     		strb	r2, [r3]
  24:Core/Src/track.c ****         case 0x02: g_track_error = -5; break;
 149              		.loc 1 24 40 is_stmt 1 view .LVU26
 150              	.L1:
  30:Core/Src/track.c ****         case 0x40: g_track_error = 5;  break;
  31:Core/Src/track.c ****         case 0x80: g_track_error = 7;  break;
  32:Core/Src/track.c ****         default:
  33:Core/Src/track.c ****             g_track_error = (g_track_error < 0) ? -2 : 2;
  34:Core/Src/track.c ****             break;
  35:Core/Src/track.c ****   }
  36:Core/Src/track.c **** }
 151              		.loc 1 36 1 is_stmt 0 view .LVU27
 152 00be 38BD     		pop	{r3, r4, r5, pc}
 153              	.L4:
  26:Core/Src/track.c ****         case 0x08: g_track_error = -1; break;
 154              		.loc 1 26 20 is_stmt 1 view .LVU28
  26:Core/Src/track.c ****         case 0x08: g_track_error = -1; break;
 155              		.loc 1 26 34 is_stmt 0 view .LVU29
 156 00c0 0F4B     		ldr	r3, .L18+8
 157 00c2 FD22     		movs	r2, #253
 158 00c4 1A70     		strb	r2, [r3]
  26:Core/Src/track.c ****         case 0x08: g_track_error = -1; break;
 159              		.loc 1 26 40 is_stmt 1 view .LVU30
 160 00c6 FAE7     		b	.L1
 161              	.L2:
  28:Core/Src/track.c ****         case 0x20: g_track_error = 3;  break;
 162              		.loc 1 28 20 view .LVU31
  28:Core/Src/track.c ****         case 0x20: g_track_error = 3;  break;
 163              		.loc 1 28 34 is_stmt 0 view .LVU32
 164 00c8 0D4B     		ldr	r3, .L18+8
 165 00ca 0122     		movs	r2, #1
 166 00cc 1A70     		strb	r2, [r3]
  28:Core/Src/track.c ****         case 0x20: g_track_error = 3;  break;
 167              		.loc 1 28 40 is_stmt 1 view .LVU33
 168 00ce F6E7     		b	.L1
 169              	.L10:
  30:Core/Src/track.c ****         case 0x40: g_track_error = 5;  break;
 170              		.loc 1 30 20 view .LVU34
  30:Core/Src/track.c ****         case 0x40: g_track_error = 5;  break;
 171              		.loc 1 30 34 is_stmt 0 view .LVU35
 172 00d0 0B4B     		ldr	r3, .L18+8
 173 00d2 0522     		movs	r2, #5
 174 00d4 1A70     		strb	r2, [r3]
  30:Core/Src/track.c ****         case 0x40: g_track_error = 5;  break;
 175              		.loc 1 30 40 is_stmt 1 view .LVU36
 176 00d6 F2E7     		b	.L1
 177              	.L11:
  31:Core/Src/track.c ****         default:
 178              		.loc 1 31 20 view .LVU37
ARM GAS  C:\Users\XUCHEN~1\AppData\Local\Temp\ccdRa9Hh.s 			page 5


  31:Core/Src/track.c ****         default:
 179              		.loc 1 31 34 is_stmt 0 view .LVU38
 180 00d8 094B     		ldr	r3, .L18+8
 181 00da 0722     		movs	r2, #7
 182 00dc 1A70     		strb	r2, [r3]
  31:Core/Src/track.c ****         default:
 183              		.loc 1 31 40 is_stmt 1 view .LVU39
 184 00de EEE7     		b	.L1
 185              	.L8:
  33:Core/Src/track.c ****             break;
 186              		.loc 1 33 13 view .LVU40
  33:Core/Src/track.c ****             break;
 187              		.loc 1 33 44 is_stmt 0 view .LVU41
 188 00e0 074B     		ldr	r3, .L18+8
 189 00e2 93F90030 		ldrsb	r3, [r3]
  33:Core/Src/track.c ****             break;
 190              		.loc 1 33 27 view .LVU42
 191 00e6 002B     		cmp	r3, #0
 192 00e8 03DB     		blt	.L17
  33:Core/Src/track.c ****             break;
 193              		.loc 1 33 27 discriminator 2 view .LVU43
 194 00ea 0222     		movs	r2, #2
 195              	.L14:
  33:Core/Src/track.c ****             break;
 196              		.loc 1 33 27 discriminator 4 view .LVU44
 197 00ec 044B     		ldr	r3, .L18+8
 198 00ee 1A70     		strb	r2, [r3]
  34:Core/Src/track.c ****   }
 199              		.loc 1 34 13 is_stmt 1 view .LVU45
 200              		.loc 1 36 1 is_stmt 0 view .LVU46
 201 00f0 E5E7     		b	.L1
 202              	.L17:
  33:Core/Src/track.c ****             break;
 203              		.loc 1 33 27 discriminator 1 view .LVU47
 204 00f2 6FF00102 		mvn	r2, #1
 205 00f6 F9E7     		b	.L14
 206              	.L19:
 207              		.align	2
 208              	.L18:
 209 00f8 000C0140 		.word	1073810432
 210 00fc 00000000 		.word	g_track_raw
 211 0100 00000000 		.word	g_track_error
 212              		.cfi_endproc
 213              	.LFE65:
 215              		.section	.text.Track_PID_Calc,"ax",%progbits
 216              		.align	1
 217              		.global	Track_PID_Calc
 218              		.syntax unified
 219              		.thumb
 220              		.thumb_func
 222              	Track_PID_Calc:
 223              	.LVL8:
 224              	.LFB66:
  37:Core/Src/track.c **** 
  38:Core/Src/track.c **** void Track_PID_Calc(float kp, float ki, float kd)
  39:Core/Src/track.c **** {
 225              		.loc 1 39 1 is_stmt 1 view -0
ARM GAS  C:\Users\XUCHEN~1\AppData\Local\Temp\ccdRa9Hh.s 			page 6


 226              		.cfi_startproc
 227              		@ args = 0, pretend = 0, frame = 0
 228              		@ frame_needed = 0, uses_anonymous_args = 0
 229              		.loc 1 39 1 is_stmt 0 view .LVU49
 230 0000 2DE9F843 		push	{r3, r4, r5, r6, r7, r8, r9, lr}
 231              	.LCFI1:
 232              		.cfi_def_cfa_offset 32
 233              		.cfi_offset 3, -32
 234              		.cfi_offset 4, -28
 235              		.cfi_offset 5, -24
 236              		.cfi_offset 6, -20
 237              		.cfi_offset 7, -16
 238              		.cfi_offset 8, -12
 239              		.cfi_offset 9, -8
 240              		.cfi_offset 14, -4
 241 0004 0546     		mov	r5, r0
 242 0006 0F46     		mov	r7, r1
 243 0008 9146     		mov	r9, r2
  40:Core/Src/track.c ****     int e = g_track_error;
 244              		.loc 1 40 5 is_stmt 1 view .LVU50
 245              		.loc 1 40 9 is_stmt 0 view .LVU51
 246 000a 1E4B     		ldr	r3, .L28
 247 000c 93F90040 		ldrsb	r4, [r3]
 248              	.LVL9:
  41:Core/Src/track.c ****     float p = kp * e;
 249              		.loc 1 41 5 is_stmt 1 view .LVU52
 250              		.loc 1 41 18 is_stmt 0 view .LVU53
 251 0010 2046     		mov	r0, r4
 252              	.LVL10:
 253              		.loc 1 41 18 view .LVU54
 254 0012 FFF7FEFF 		bl	__aeabi_i2f
 255              	.LVL11:
 256              		.loc 1 41 18 view .LVU55
 257 0016 0646     		mov	r6, r0
 258              		.loc 1 41 11 view .LVU56
 259 0018 2946     		mov	r1, r5
 260 001a FFF7FEFF 		bl	__aeabi_fmul
 261              	.LVL12:
 262 001e 8046     		mov	r8, r0
 263              	.LVL13:
  42:Core/Src/track.c ****     g_track_integral += e;
 264              		.loc 1 42 5 is_stmt 1 view .LVU57
 265              		.loc 1 42 22 is_stmt 0 view .LVU58
 266 0020 194D     		ldr	r5, .L28+4
 267              	.LVL14:
 268              		.loc 1 42 22 view .LVU59
 269 0022 2968     		ldr	r1, [r5]	@ float
 270 0024 3046     		mov	r0, r6
 271              	.LVL15:
 272              		.loc 1 42 22 view .LVU60
 273 0026 FFF7FEFF 		bl	__aeabi_fadd
 274              	.LVL16:
 275 002a 2860     		str	r0, [r5]	@ float
  43:Core/Src/track.c ****     if(g_track_integral > 1000)  g_track_integral = 1000;
 276              		.loc 1 43 5 is_stmt 1 view .LVU61
 277              		.loc 1 43 7 is_stmt 0 view .LVU62
 278 002c 1749     		ldr	r1, .L28+8
ARM GAS  C:\Users\XUCHEN~1\AppData\Local\Temp\ccdRa9Hh.s 			page 7


 279 002e FFF7FEFF 		bl	__aeabi_fcmpgt
 280              	.LVL17:
 281 0032 08B1     		cbz	r0, .L21
 282              		.loc 1 43 34 is_stmt 1 discriminator 1 view .LVU63
 283              		.loc 1 43 51 is_stmt 0 discriminator 1 view .LVU64
 284 0034 154A     		ldr	r2, .L28+8
 285 0036 2A60     		str	r2, [r5]	@ float
 286              	.L21:
  44:Core/Src/track.c ****     if(g_track_integral < -1000) g_track_integral = -1000;
 287              		.loc 1 44 5 is_stmt 1 view .LVU65
 288              		.loc 1 44 7 is_stmt 0 view .LVU66
 289 0038 1549     		ldr	r1, .L28+12
 290 003a 134B     		ldr	r3, .L28+4
 291 003c 1868     		ldr	r0, [r3]	@ float
 292 003e FFF7FEFF 		bl	__aeabi_fcmplt
 293              	.LVL18:
 294 0042 10B1     		cbz	r0, .L23
 295              		.loc 1 44 34 is_stmt 1 discriminator 1 view .LVU67
 296              		.loc 1 44 51 is_stmt 0 discriminator 1 view .LVU68
 297 0044 104B     		ldr	r3, .L28+4
 298 0046 124A     		ldr	r2, .L28+12
 299 0048 1A60     		str	r2, [r3]	@ float
 300              	.L23:
  45:Core/Src/track.c ****     float i = ki * g_track_integral;
 301              		.loc 1 45 5 is_stmt 1 view .LVU69
 302              		.loc 1 45 11 is_stmt 0 view .LVU70
 303 004a 3946     		mov	r1, r7
 304 004c 0E4B     		ldr	r3, .L28+4
 305 004e 1868     		ldr	r0, [r3]	@ float
 306 0050 FFF7FEFF 		bl	__aeabi_fmul
 307              	.LVL19:
 308 0054 0746     		mov	r7, r0
 309              	.LVL20:
  46:Core/Src/track.c ****     float d = kd * (e - g_track_error_last);
 310              		.loc 1 46 5 is_stmt 1 view .LVU71
 311              		.loc 1 46 23 is_stmt 0 view .LVU72
 312 0056 0F4D     		ldr	r5, .L28+16
 313 0058 95F90000 		ldrsb	r0, [r5]
 314              	.LVL21:
 315              		.loc 1 46 18 view .LVU73
 316 005c 201A     		subs	r0, r4, r0
 317 005e FFF7FEFF 		bl	__aeabi_i2f
 318              	.LVL22:
 319              		.loc 1 46 11 view .LVU74
 320 0062 4946     		mov	r1, r9
 321 0064 FFF7FEFF 		bl	__aeabi_fmul
 322              	.LVL23:
 323 0068 0646     		mov	r6, r0
 324              	.LVL24:
  47:Core/Src/track.c ****     g_track_pid_out = p + i + d;
 325              		.loc 1 47 5 is_stmt 1 view .LVU75
 326              		.loc 1 47 25 is_stmt 0 view .LVU76
 327 006a 3946     		mov	r1, r7
 328 006c 4046     		mov	r0, r8
 329              	.LVL25:
 330              		.loc 1 47 25 view .LVU77
 331 006e FFF7FEFF 		bl	__aeabi_fadd
ARM GAS  C:\Users\XUCHEN~1\AppData\Local\Temp\ccdRa9Hh.s 			page 8


 332              	.LVL26:
 333              		.loc 1 47 29 view .LVU78
 334 0072 3146     		mov	r1, r6
 335 0074 FFF7FEFF 		bl	__aeabi_fadd
 336              	.LVL27:
 337              		.loc 1 47 21 view .LVU79
 338 0078 074B     		ldr	r3, .L28+20
 339 007a 1860     		str	r0, [r3]	@ float
  48:Core/Src/track.c ****     g_track_error_last = e;
 340              		.loc 1 48 5 is_stmt 1 view .LVU80
 341              		.loc 1 48 24 is_stmt 0 view .LVU81
 342 007c 2C70     		strb	r4, [r5]
  49:Core/Src/track.c **** }
 343              		.loc 1 49 1 view .LVU82
 344 007e BDE8F883 		pop	{r3, r4, r5, r6, r7, r8, r9, pc}
 345              	.LVL28:
 346              	.L29:
 347              		.loc 1 49 1 view .LVU83
 348 0082 00BF     		.align	2
 349              	.L28:
 350 0084 00000000 		.word	g_track_error
 351 0088 00000000 		.word	g_track_integral
 352 008c 00007A44 		.word	1148846080
 353 0090 00007AC4 		.word	-998637568
 354 0094 00000000 		.word	g_track_error_last
 355 0098 00000000 		.word	g_track_pid_out
 356              		.cfi_endproc
 357              	.LFE66:
 359              		.section	.text.Get_Track_Error,"ax",%progbits
 360              		.align	1
 361              		.global	Get_Track_Error
 362              		.syntax unified
 363              		.thumb
 364              		.thumb_func
 366              	Get_Track_Error:
 367              	.LFB67:
  50:Core/Src/track.c **** 
  51:Core/Src/track.c **** int8_t Get_Track_Error(void) { return g_track_error; }
 368              		.loc 1 51 30 is_stmt 1 view -0
 369              		.cfi_startproc
 370              		@ args = 0, pretend = 0, frame = 0
 371              		@ frame_needed = 0, uses_anonymous_args = 0
 372              		@ link register save eliminated.
 373              		.loc 1 51 32 view .LVU85
 374              		.loc 1 51 54 is_stmt 0 view .LVU86
 375 0000 014B     		ldr	r3, .L31
 376 0002 93F90000 		ldrsb	r0, [r3]
 377 0006 7047     		bx	lr
 378              	.L32:
 379              		.align	2
 380              	.L31:
 381 0008 00000000 		.word	g_track_error
 382              		.cfi_endproc
 383              	.LFE67:
 385              		.section	.text.Get_Track_PID_Out,"ax",%progbits
 386              		.align	1
 387              		.global	Get_Track_PID_Out
ARM GAS  C:\Users\XUCHEN~1\AppData\Local\Temp\ccdRa9Hh.s 			page 9


 388              		.syntax unified
 389              		.thumb
 390              		.thumb_func
 392              	Get_Track_PID_Out:
 393              	.LFB68:
  52:Core/Src/track.c **** float Get_Track_PID_Out(void) { return g_track_pid_out; }
 394              		.loc 1 52 31 is_stmt 1 view -0
 395              		.cfi_startproc
 396              		@ args = 0, pretend = 0, frame = 0
 397              		@ frame_needed = 0, uses_anonymous_args = 0
 398              		@ link register save eliminated.
 399              		.loc 1 52 33 view .LVU88
 400              		.loc 1 52 57 is_stmt 0 view .LVU89
 401 0000 014B     		ldr	r3, .L34
 402 0002 1868     		ldr	r0, [r3]	@ float
 403 0004 7047     		bx	lr
 404              	.L35:
 405 0006 00BF     		.align	2
 406              	.L34:
 407 0008 00000000 		.word	g_track_pid_out
 408              		.cfi_endproc
 409              	.LFE68:
 411              		.section	.text.Track_Reset_PID,"ax",%progbits
 412              		.align	1
 413              		.global	Track_Reset_PID
 414              		.syntax unified
 415              		.thumb
 416              		.thumb_func
 418              	Track_Reset_PID:
 419              	.LFB69:
  53:Core/Src/track.c **** void Track_Reset_PID(void) { g_track_integral = 0; g_track_error_last = 0; }...
 420              		.loc 1 53 28 is_stmt 1 view -0
 421              		.cfi_startproc
 422              		@ args = 0, pretend = 0, frame = 0
 423              		@ frame_needed = 0, uses_anonymous_args = 0
 424              		@ link register save eliminated.
 425              		.loc 1 53 30 view .LVU91
 426              		.loc 1 53 47 is_stmt 0 view .LVU92
 427 0000 034B     		ldr	r3, .L37
 428 0002 0022     		movs	r2, #0
 429 0004 1A60     		str	r2, [r3]	@ float
 430              		.loc 1 53 52 is_stmt 1 view .LVU93
 431              		.loc 1 53 71 is_stmt 0 view .LVU94
 432 0006 034B     		ldr	r3, .L37+4
 433 0008 0022     		movs	r2, #0
 434 000a 1A70     		strb	r2, [r3]
 435              		.loc 1 53 76 view .LVU95
 436 000c 7047     		bx	lr
 437              	.L38:
 438 000e 00BF     		.align	2
 439              	.L37:
 440 0010 00000000 		.word	g_track_integral
 441 0014 00000000 		.word	g_track_error_last
 442              		.cfi_endproc
 443              	.LFE69:
 445              		.section	.bss.g_track_integral,"aw",%nobits
 446              		.align	2
ARM GAS  C:\Users\XUCHEN~1\AppData\Local\Temp\ccdRa9Hh.s 			page 10


 449              	g_track_integral:
 450 0000 00000000 		.space	4
 451              		.section	.bss.g_track_error_last,"aw",%nobits
 454              	g_track_error_last:
 455 0000 00       		.space	1
 456              		.section	.bss.g_track_pid_out,"aw",%nobits
 457              		.align	2
 460              	g_track_pid_out:
 461 0000 00000000 		.space	4
 462              		.section	.bss.g_track_error,"aw",%nobits
 465              	g_track_error:
 466 0000 00       		.space	1
 467              		.section	.bss.g_track_raw,"aw",%nobits
 470              	g_track_raw:
 471 0000 00       		.space	1
 472              		.text
 473              	.Letext0:
 474              		.file 2 "C:/arm-gnu-toolchain-15.2.rel1-mingw-w64-x86_64-arm-none-eabi/arm-none-eabi/include/machi
 475              		.file 3 "C:/arm-gnu-toolchain-15.2.rel1-mingw-w64-x86_64-arm-none-eabi/arm-none-eabi/include/sys/_
 476              		.file 4 "Drivers/CMSIS/Device/ST/STM32F1xx/Include/stm32f103xe.h"
 477              		.file 5 "Drivers/STM32F1xx_HAL_Driver/Inc/stm32f1xx_hal_gpio.h"
ARM GAS  C:\Users\XUCHEN~1\AppData\Local\Temp\ccdRa9Hh.s 			page 11

