ARM GAS  C:\Users\XUCHEN~1\AppData\Local\Temp\ccfQE5mB.s 			page 1


   1              		.cpu cortex-m3
   2              		.arch armv7-m
   3              		.fpu softvfp
   4              		.eabi_attribute 20, 1
   5              		.eabi_attribute 21, 1
   6              		.eabi_attribute 23, 3
   7              		.eabi_attribute 24, 1
   8              		.eabi_attribute 25, 1
   9              		.eabi_attribute 26, 1
  10              		.eabi_attribute 30, 1
  11              		.eabi_attribute 34, 1
  12              		.eabi_attribute 18, 4
  13              		.file	"vision.c"
  14              		.text
  15              	.Ltext0:
  16              		.cfi_sections	.debug_frame
  17              		.file 1 "Core/Src/vision.c"
  18              		.section	.text.UART_Init,"ax",%progbits
  19              		.align	1
  20              		.global	UART_Init
  21              		.syntax unified
  22              		.thumb
  23              		.thumb_func
  25              	UART_Init:
  26              	.LFB68:
   1:Core/Src/vision.c **** #include "vision.h"
   2:Core/Src/vision.c **** #include "usart.h"
   3:Core/Src/vision.c **** #include <stdio.h>
   4:Core/Src/vision.c **** #include <string.h>
   5:Core/Src/vision.c **** 
   6:Core/Src/vision.c **** extern UART_HandleTypeDef huart1;
   7:Core/Src/vision.c **** 
   8:Core/Src/vision.c **** static uint8_t rx_data;                    // ˝ÓĘŐµĄ×Ö˝Ú»ş´ć
   9:Core/Src/vision.c **** static volatile uint8_t vision_align_flag = 0;
  10:Core/Src/vision.c **** static volatile float vision_offset = 0;
  11:Core/Src/vision.c **** static uint8_t rx_buf[50];
  12:Core/Src/vision.c **** static uint8_t rx_cnt = 0;
  13:Core/Src/vision.c **** 
  14:Core/Src/vision.c **** void UART_Init(void)
  15:Core/Src/vision.c **** {
  27              		.loc 1 15 1 view -0
  28              		.cfi_startproc
  29              		@ args = 0, pretend = 0, frame = 0
  30              		@ frame_needed = 0, uses_anonymous_args = 0
  31 0000 08B5     		push	{r3, lr}
  32              	.LCFI0:
  33              		.cfi_def_cfa_offset 8
  34              		.cfi_offset 3, -8
  35              		.cfi_offset 14, -4
  16:Core/Src/vision.c ****     // Ćô¶ŻµÚŇ»¸ö×Ö˝ÚµÄ˝ÓĘŐ
  17:Core/Src/vision.c ****     HAL_UART_Receive_IT(&huart1, &rx_data, 1);
  36              		.loc 1 17 5 view .LVU1
  37 0002 0122     		movs	r2, #1
  38 0004 0249     		ldr	r1, .L3
  39 0006 0348     		ldr	r0, .L3+4
  40 0008 FFF7FEFF 		bl	HAL_UART_Receive_IT
  41              	.LVL0:
ARM GAS  C:\Users\XUCHEN~1\AppData\Local\Temp\ccfQE5mB.s 			page 2


  18:Core/Src/vision.c **** }
  42              		.loc 1 18 1 is_stmt 0 view .LVU2
  43 000c 08BD     		pop	{r3, pc}
  44              	.L4:
  45 000e 00BF     		.align	2
  46              	.L3:
  47 0010 00000000 		.word	rx_data
  48 0014 00000000 		.word	huart1
  49              		.cfi_endproc
  50              	.LFE68:
  52              		.section	.rodata.HAL_UART_RxCpltCallback.str1.4,"aMS",%progbits,1
  53              		.align	2
  54              	.LC0:
  55 0000 432C00   		.ascii	"C,\000"
  56 0003 00       		.align	2
  57              	.LC1:
  58 0004 432C2566 		.ascii	"C,%f\000"
  58      00
  59 0009 000000   		.align	2
  60              	.LC2:
  61 000c 4F4B00   		.ascii	"OK\000"
  62              		.section	.text.HAL_UART_RxCpltCallback,"ax",%progbits
  63              		.align	1
  64              		.global	HAL_UART_RxCpltCallback
  65              		.syntax unified
  66              		.thumb
  67              		.thumb_func
  69              	HAL_UART_RxCpltCallback:
  70              	.LVL1:
  71              	.LFB69:
  19:Core/Src/vision.c **** 
  20:Core/Src/vision.c **** void HAL_UART_RxCpltCallback(UART_HandleTypeDef *huart)
  21:Core/Src/vision.c **** {
  72              		.loc 1 21 1 is_stmt 1 view -0
  73              		.cfi_startproc
  74              		@ args = 0, pretend = 0, frame = 0
  75              		@ frame_needed = 0, uses_anonymous_args = 0
  76              		.loc 1 21 1 is_stmt 0 view .LVU4
  77 0000 08B5     		push	{r3, lr}
  78              	.LCFI1:
  79              		.cfi_def_cfa_offset 8
  80              		.cfi_offset 3, -8
  81              		.cfi_offset 14, -4
  22:Core/Src/vision.c ****     if(huart == &huart1)
  82              		.loc 1 22 5 is_stmt 1 view .LVU5
  83              		.loc 1 22 7 is_stmt 0 view .LVU6
  84 0002 1D4B     		ldr	r3, .L16
  85 0004 9842     		cmp	r0, r3
  86 0006 00D0     		beq	.L13
  87              	.LVL2:
  88              	.L5:
  23:Core/Src/vision.c ****     {
  24:Core/Src/vision.c ****         if(rx_data == '\n')
  25:Core/Src/vision.c ****         {
  26:Core/Src/vision.c ****             rx_buf[rx_cnt] = '\0';
  27:Core/Src/vision.c ****             if(strncmp((char*)rx_buf, "C,", 2) == 0)
  28:Core/Src/vision.c ****             {
ARM GAS  C:\Users\XUCHEN~1\AppData\Local\Temp\ccfQE5mB.s 			page 3


  29:Core/Src/vision.c ****                 sscanf((char*)rx_buf, "C,%f", &vision_offset);
  30:Core/Src/vision.c ****                 vision_align_flag = 1;
  31:Core/Src/vision.c ****             }
  32:Core/Src/vision.c ****             else if(strncmp((char*)rx_buf, "OK", 2) == 0)
  33:Core/Src/vision.c ****             {
  34:Core/Src/vision.c ****                 vision_align_flag = 2;
  35:Core/Src/vision.c ****             }
  36:Core/Src/vision.c ****             rx_cnt = 0;
  37:Core/Src/vision.c ****         }
  38:Core/Src/vision.c ****         else
  39:Core/Src/vision.c ****         {
  40:Core/Src/vision.c ****             if(rx_cnt < sizeof(rx_buf)-1)
  41:Core/Src/vision.c ****                 rx_buf[rx_cnt++] = rx_data;
  42:Core/Src/vision.c ****             else
  43:Core/Src/vision.c ****                 rx_cnt = 0;
  44:Core/Src/vision.c ****         }
  45:Core/Src/vision.c ****         // ĽĚĐř˝ÓĘŐĎÂŇ»¸ö×Ö˝Ú
  46:Core/Src/vision.c ****         HAL_UART_Receive_IT(&huart1, &rx_data, 1);
  47:Core/Src/vision.c ****     }
  48:Core/Src/vision.c **** }
  89              		.loc 1 48 1 view .LVU7
  90 0008 08BD     		pop	{r3, pc}
  91              	.LVL3:
  92              	.L13:
  24:Core/Src/vision.c ****         {
  93              		.loc 1 24 9 is_stmt 1 view .LVU8
  24:Core/Src/vision.c ****         {
  94              		.loc 1 24 20 is_stmt 0 view .LVU9
  95 000a 1C4B     		ldr	r3, .L16+4
  96 000c 1B78     		ldrb	r3, [r3]	@ zero_extendqisi2
  24:Core/Src/vision.c ****         {
  97              		.loc 1 24 11 view .LVU10
  98 000e 0A2B     		cmp	r3, #10
  99 0010 09D0     		beq	.L14
  40:Core/Src/vision.c ****                 rx_buf[rx_cnt++] = rx_data;
 100              		.loc 1 40 13 is_stmt 1 view .LVU11
  40:Core/Src/vision.c ****                 rx_buf[rx_cnt++] = rx_data;
 101              		.loc 1 40 23 is_stmt 0 view .LVU12
 102 0012 1B4A     		ldr	r2, .L16+8
 103 0014 1278     		ldrb	r2, [r2]	@ zero_extendqisi2
  40:Core/Src/vision.c ****                 rx_buf[rx_cnt++] = rx_data;
 104              		.loc 1 40 15 view .LVU13
 105 0016 302A     		cmp	r2, #48
 106 0018 2AD8     		bhi	.L11
  41:Core/Src/vision.c ****             else
 107              		.loc 1 41 17 is_stmt 1 view .LVU14
  41:Core/Src/vision.c ****             else
 108              		.loc 1 41 30 is_stmt 0 view .LVU15
 109 001a 501C     		adds	r0, r2, #1
 110              	.LVL4:
  41:Core/Src/vision.c ****             else
 111              		.loc 1 41 30 view .LVU16
 112 001c 1849     		ldr	r1, .L16+8
 113 001e 0870     		strb	r0, [r1]
  41:Core/Src/vision.c ****             else
 114              		.loc 1 41 34 view .LVU17
 115 0020 1849     		ldr	r1, .L16+12
ARM GAS  C:\Users\XUCHEN~1\AppData\Local\Temp\ccfQE5mB.s 			page 4


 116 0022 8B54     		strb	r3, [r1, r2]
 117 0024 15E0     		b	.L10
 118              	.LVL5:
 119              	.L14:
  26:Core/Src/vision.c ****             if(strncmp((char*)rx_buf, "C,", 2) == 0)
 120              		.loc 1 26 13 is_stmt 1 view .LVU18
  26:Core/Src/vision.c ****             if(strncmp((char*)rx_buf, "C,", 2) == 0)
 121              		.loc 1 26 19 is_stmt 0 view .LVU19
 122 0026 164B     		ldr	r3, .L16+8
 123 0028 1B78     		ldrb	r3, [r3]	@ zero_extendqisi2
  26:Core/Src/vision.c ****             if(strncmp((char*)rx_buf, "C,", 2) == 0)
 124              		.loc 1 26 28 view .LVU20
 125 002a 1648     		ldr	r0, .L16+12
 126              	.LVL6:
  26:Core/Src/vision.c ****             if(strncmp((char*)rx_buf, "C,", 2) == 0)
 127              		.loc 1 26 28 view .LVU21
 128 002c 0022     		movs	r2, #0
 129 002e C254     		strb	r2, [r0, r3]
  27:Core/Src/vision.c ****             {
 130              		.loc 1 27 13 is_stmt 1 view .LVU22
  27:Core/Src/vision.c ****             {
 131              		.loc 1 27 16 is_stmt 0 view .LVU23
 132 0030 0222     		movs	r2, #2
 133 0032 1549     		ldr	r1, .L16+16
 134 0034 FFF7FEFF 		bl	strncmp
 135              	.LVL7:
  27:Core/Src/vision.c ****             {
 136              		.loc 1 27 15 discriminator 1 view .LVU24
 137 0038 88B1     		cbz	r0, .L15
  32:Core/Src/vision.c ****             {
 138              		.loc 1 32 18 is_stmt 1 view .LVU25
  32:Core/Src/vision.c ****             {
 139              		.loc 1 32 21 is_stmt 0 view .LVU26
 140 003a 0222     		movs	r2, #2
 141 003c 1349     		ldr	r1, .L16+20
 142 003e 1148     		ldr	r0, .L16+12
 143 0040 FFF7FEFF 		bl	strncmp
 144              	.LVL8:
  32:Core/Src/vision.c ****             {
 145              		.loc 1 32 20 discriminator 1 view .LVU27
 146 0044 10B9     		cbnz	r0, .L9
  34:Core/Src/vision.c ****             }
 147              		.loc 1 34 17 is_stmt 1 view .LVU28
  34:Core/Src/vision.c ****             }
 148              		.loc 1 34 35 is_stmt 0 view .LVU29
 149 0046 124B     		ldr	r3, .L16+24
 150 0048 0222     		movs	r2, #2
 151 004a 1A70     		strb	r2, [r3]
 152              	.L9:
  36:Core/Src/vision.c ****         }
 153              		.loc 1 36 13 is_stmt 1 view .LVU30
  36:Core/Src/vision.c ****         }
 154              		.loc 1 36 20 is_stmt 0 view .LVU31
 155 004c 0C4B     		ldr	r3, .L16+8
 156 004e 0022     		movs	r2, #0
 157 0050 1A70     		strb	r2, [r3]
 158              	.L10:
ARM GAS  C:\Users\XUCHEN~1\AppData\Local\Temp\ccfQE5mB.s 			page 5


  46:Core/Src/vision.c ****     }
 159              		.loc 1 46 9 is_stmt 1 view .LVU32
 160 0052 0122     		movs	r2, #1
 161 0054 0949     		ldr	r1, .L16+4
 162 0056 0848     		ldr	r0, .L16
 163 0058 FFF7FEFF 		bl	HAL_UART_Receive_IT
 164              	.LVL9:
 165              		.loc 1 48 1 is_stmt 0 view .LVU33
 166 005c D4E7     		b	.L5
 167              	.L15:
  29:Core/Src/vision.c ****                 vision_align_flag = 1;
 168              		.loc 1 29 17 is_stmt 1 view .LVU34
 169 005e 0D4A     		ldr	r2, .L16+28
 170 0060 0D49     		ldr	r1, .L16+32
 171 0062 0848     		ldr	r0, .L16+12
 172 0064 FFF7FEFF 		bl	sscanf
 173              	.LVL10:
  30:Core/Src/vision.c ****             }
 174              		.loc 1 30 17 view .LVU35
  30:Core/Src/vision.c ****             }
 175              		.loc 1 30 35 is_stmt 0 view .LVU36
 176 0068 094B     		ldr	r3, .L16+24
 177 006a 0122     		movs	r2, #1
 178 006c 1A70     		strb	r2, [r3]
 179 006e EDE7     		b	.L9
 180              	.LVL11:
 181              	.L11:
  43:Core/Src/vision.c ****         }
 182              		.loc 1 43 17 is_stmt 1 view .LVU37
  43:Core/Src/vision.c ****         }
 183              		.loc 1 43 24 is_stmt 0 view .LVU38
 184 0070 034B     		ldr	r3, .L16+8
 185 0072 0022     		movs	r2, #0
 186 0074 1A70     		strb	r2, [r3]
 187 0076 ECE7     		b	.L10
 188              	.L17:
 189              		.align	2
 190              	.L16:
 191 0078 00000000 		.word	huart1
 192 007c 00000000 		.word	rx_data
 193 0080 00000000 		.word	rx_cnt
 194 0084 00000000 		.word	rx_buf
 195 0088 00000000 		.word	.LC0
 196 008c 0C000000 		.word	.LC2
 197 0090 00000000 		.word	vision_align_flag
 198 0094 00000000 		.word	vision_offset
 199 0098 04000000 		.word	.LC1
 200              		.cfi_endproc
 201              	.LFE69:
 203              		.section	.rodata.OpenMV_SetMode.str1.4,"aMS",%progbits,1
 204              		.align	2
 205              	.LC3:
 206 0000 4D2C2564 		.ascii	"M,%d\015\012\000"
 206      0D0A00
 207              		.section	.text.OpenMV_SetMode,"ax",%progbits
 208              		.align	1
 209              		.global	OpenMV_SetMode
ARM GAS  C:\Users\XUCHEN~1\AppData\Local\Temp\ccfQE5mB.s 			page 6


 210              		.syntax unified
 211              		.thumb
 212              		.thumb_func
 214              	OpenMV_SetMode:
 215              	.LVL12:
 216              	.LFB70:
  49:Core/Src/vision.c **** 
  50:Core/Src/vision.c **** void OpenMV_SetMode(uint8_t mode)
  51:Core/Src/vision.c **** {
 217              		.loc 1 51 1 is_stmt 1 view -0
 218              		.cfi_startproc
 219              		@ args = 0, pretend = 0, frame = 16
 220              		@ frame_needed = 0, uses_anonymous_args = 0
 221              		.loc 1 51 1 is_stmt 0 view .LVU40
 222 0000 10B5     		push	{r4, lr}
 223              	.LCFI2:
 224              		.cfi_def_cfa_offset 8
 225              		.cfi_offset 4, -8
 226              		.cfi_offset 14, -4
 227 0002 84B0     		sub	sp, sp, #16
 228              	.LCFI3:
 229              		.cfi_def_cfa_offset 24
 230 0004 0246     		mov	r2, r0
  52:Core/Src/vision.c ****     char buf[10];
 231              		.loc 1 52 5 is_stmt 1 view .LVU41
  53:Core/Src/vision.c ****     sprintf(buf, "M,%d\r\n", mode);
 232              		.loc 1 53 5 view .LVU42
 233 0006 01AC     		add	r4, sp, #4
 234 0008 0849     		ldr	r1, .L20
 235 000a 2046     		mov	r0, r4
 236              	.LVL13:
 237              		.loc 1 53 5 is_stmt 0 view .LVU43
 238 000c FFF7FEFF 		bl	sprintf
 239              	.LVL14:
  54:Core/Src/vision.c ****     HAL_UART_Transmit(&huart1, (uint8_t*)buf, strlen(buf), 100);
 240              		.loc 1 54 5 is_stmt 1 view .LVU44
 241              		.loc 1 54 47 is_stmt 0 view .LVU45
 242 0010 2046     		mov	r0, r4
 243 0012 FFF7FEFF 		bl	strlen
 244              	.LVL15:
 245              		.loc 1 54 5 discriminator 1 view .LVU46
 246 0016 6423     		movs	r3, #100
 247 0018 82B2     		uxth	r2, r0
 248 001a 2146     		mov	r1, r4
 249 001c 0448     		ldr	r0, .L20+4
 250 001e FFF7FEFF 		bl	HAL_UART_Transmit
 251              	.LVL16:
  55:Core/Src/vision.c ****     HAL_Delay(50);
 252              		.loc 1 55 5 is_stmt 1 view .LVU47
 253 0022 3220     		movs	r0, #50
 254 0024 FFF7FEFF 		bl	HAL_Delay
 255              	.LVL17:
  56:Core/Src/vision.c **** }
 256              		.loc 1 56 1 is_stmt 0 view .LVU48
 257 0028 04B0     		add	sp, sp, #16
 258              	.LCFI4:
 259              		.cfi_def_cfa_offset 8
ARM GAS  C:\Users\XUCHEN~1\AppData\Local\Temp\ccfQE5mB.s 			page 7


 260              		@ sp needed
 261 002a 10BD     		pop	{r4, pc}
 262              	.L21:
 263              		.align	2
 264              	.L20:
 265 002c 00000000 		.word	.LC3
 266 0030 00000000 		.word	huart1
 267              		.cfi_endproc
 268              	.LFE70:
 270              		.section	.text.Vision_GetAlignFlag,"ax",%progbits
 271              		.align	1
 272              		.global	Vision_GetAlignFlag
 273              		.syntax unified
 274              		.thumb
 275              		.thumb_func
 277              	Vision_GetAlignFlag:
 278              	.LFB71:
  57:Core/Src/vision.c **** 
  58:Core/Src/vision.c **** uint8_t Vision_GetAlignFlag(void) { return vision_align_flag; }
 279              		.loc 1 58 35 is_stmt 1 view -0
 280              		.cfi_startproc
 281              		@ args = 0, pretend = 0, frame = 0
 282              		@ frame_needed = 0, uses_anonymous_args = 0
 283              		@ link register save eliminated.
 284              		.loc 1 58 37 view .LVU50
 285              		.loc 1 58 44 is_stmt 0 view .LVU51
 286 0000 014B     		ldr	r3, .L23
 287 0002 1878     		ldrb	r0, [r3]	@ zero_extendqisi2
 288              		.loc 1 58 63 view .LVU52
 289 0004 7047     		bx	lr
 290              	.L24:
 291 0006 00BF     		.align	2
 292              	.L23:
 293 0008 00000000 		.word	vision_align_flag
 294              		.cfi_endproc
 295              	.LFE71:
 297              		.section	.text.Vision_ClearAlignFlag,"ax",%progbits
 298              		.align	1
 299              		.global	Vision_ClearAlignFlag
 300              		.syntax unified
 301              		.thumb
 302              		.thumb_func
 304              	Vision_ClearAlignFlag:
 305              	.LFB72:
  59:Core/Src/vision.c **** void Vision_ClearAlignFlag(void) { vision_align_flag = 0; }
 306              		.loc 1 59 34 is_stmt 1 view -0
 307              		.cfi_startproc
 308              		@ args = 0, pretend = 0, frame = 0
 309              		@ frame_needed = 0, uses_anonymous_args = 0
 310              		@ link register save eliminated.
 311              		.loc 1 59 36 view .LVU54
 312              		.loc 1 59 54 is_stmt 0 view .LVU55
 313 0000 014B     		ldr	r3, .L26
 314 0002 0022     		movs	r2, #0
 315 0004 1A70     		strb	r2, [r3]
 316              		.loc 1 59 59 view .LVU56
 317 0006 7047     		bx	lr
ARM GAS  C:\Users\XUCHEN~1\AppData\Local\Temp\ccfQE5mB.s 			page 8


 318              	.L27:
 319              		.align	2
 320              	.L26:
 321 0008 00000000 		.word	vision_align_flag
 322              		.cfi_endproc
 323              	.LFE72:
 325              		.section	.text.Vision_GetOffset,"ax",%progbits
 326              		.align	1
 327              		.global	Vision_GetOffset
 328              		.syntax unified
 329              		.thumb
 330              		.thumb_func
 332              	Vision_GetOffset:
 333              	.LFB73:
  60:Core/Src/vision.c **** float Vision_GetOffset(void) { return vision_offset; }...
 334              		.loc 1 60 30 is_stmt 1 view -0
 335              		.cfi_startproc
 336              		@ args = 0, pretend = 0, frame = 0
 337              		@ frame_needed = 0, uses_anonymous_args = 0
 338              		@ link register save eliminated.
 339              		.loc 1 60 32 view .LVU58
 340              		.loc 1 60 39 is_stmt 0 view .LVU59
 341 0000 014B     		ldr	r3, .L29
 342 0002 1868     		ldr	r0, [r3]	@ float
 343              		.loc 1 60 54 view .LVU60
 344 0004 7047     		bx	lr
 345              	.L30:
 346 0006 00BF     		.align	2
 347              	.L29:
 348 0008 00000000 		.word	vision_offset
 349              		.cfi_endproc
 350              	.LFE73:
 352              		.section	.bss.rx_cnt,"aw",%nobits
 355              	rx_cnt:
 356 0000 00       		.space	1
 357              		.section	.bss.rx_buf,"aw",%nobits
 358              		.align	2
 361              	rx_buf:
 362 0000 00000000 		.space	50
 362      00000000 
 362      00000000 
 362      00000000 
 362      00000000 
 363              		.section	.bss.vision_offset,"aw",%nobits
 364              		.align	2
 367              	vision_offset:
 368 0000 00000000 		.space	4
 369              		.section	.bss.vision_align_flag,"aw",%nobits
 372              	vision_align_flag:
 373 0000 00       		.space	1
 374              		.section	.bss.rx_data,"aw",%nobits
 377              	rx_data:
 378 0000 00       		.space	1
 379              		.text
 380              	.Letext0:
 381              		.file 2 "C:/arm-gnu-toolchain-15.2.rel1-mingw-w64-x86_64-arm-none-eabi/arm-none-eabi/include/machi
 382              		.file 3 "C:/arm-gnu-toolchain-15.2.rel1-mingw-w64-x86_64-arm-none-eabi/arm-none-eabi/include/sys/_
ARM GAS  C:\Users\XUCHEN~1\AppData\Local\Temp\ccfQE5mB.s 			page 9


 383              		.file 4 "Drivers/CMSIS/Device/ST/STM32F1xx/Include/stm32f103xe.h"
 384              		.file 5 "C:/arm-gnu-toolchain-15.2.rel1-mingw-w64-x86_64-arm-none-eabi/lib/gcc/arm-none-eabi/15.2.
 385              		.file 6 "Drivers/STM32F1xx_HAL_Driver/Inc/stm32f1xx_hal_def.h"
 386              		.file 7 "Drivers/STM32F1xx_HAL_Driver/Inc/stm32f1xx_hal_dma.h"
 387              		.file 8 "Drivers/STM32F1xx_HAL_Driver/Inc/stm32f1xx_hal_uart.h"
 388              		.file 9 "C:/arm-gnu-toolchain-15.2.rel1-mingw-w64-x86_64-arm-none-eabi/arm-none-eabi/include/strin
 389              		.file 10 "C:/arm-gnu-toolchain-15.2.rel1-mingw-w64-x86_64-arm-none-eabi/arm-none-eabi/include/stdi
 390              		.file 11 "Core/Inc/usart.h"
 391              		.file 12 "Drivers/STM32F1xx_HAL_Driver/Inc/stm32f1xx_hal.h"
ARM GAS  C:\Users\XUCHEN~1\AppData\Local\Temp\ccfQE5mB.s 			page 10

